
target/release/aoc-2022:     file format elf64-x86-64


Disassembly of section .init:

0000000000006000 <_init>:
    6000:	f3 0f 1e fa          	endbr64
    6004:	48 83 ec 08          	sub    $0x8,%rsp
    6008:	48 8b 05 c9 cc 04 00 	mov    0x4ccc9(%rip),%rax        # 52cd8 <__gmon_start__@Base>
    600f:	48 85 c0             	test   %rax,%rax
    6012:	74 02                	je     6016 <_init+0x16>
    6014:	ff d0                	call   *%rax
    6016:	48 83 c4 08          	add    $0x8,%rsp
    601a:	c3                   	ret

Disassembly of section .plt:

0000000000006020 <__tls_get_addr@plt-0x10>:
    6020:	ff 35 da c8 04 00    	push   0x4c8da(%rip)        # 52900 <_GLOBAL_OFFSET_TABLE_+0x8>
    6026:	ff 25 dc c8 04 00    	jmp    *0x4c8dc(%rip)        # 52908 <_GLOBAL_OFFSET_TABLE_+0x10>
    602c:	0f 1f 40 00          	nopl   0x0(%rax)

0000000000006030 <__tls_get_addr@plt>:
    6030:	ff 25 da c8 04 00    	jmp    *0x4c8da(%rip)        # 52910 <__tls_get_addr@GLIBC_2.3>
    6036:	68 00 00 00 00       	push   $0x0
    603b:	e9 e0 ff ff ff       	jmp    6020 <_init+0x20>

0000000000006040 <_Unwind_Resume@plt>:
    6040:	ff 25 d2 c8 04 00    	jmp    *0x4c8d2(%rip)        # 52918 <_Unwind_Resume@GCC_3.0>
    6046:	68 01 00 00 00       	push   $0x1
    604b:	e9 d0 ff ff ff       	jmp    6020 <_init+0x20>

Disassembly of section .text:

0000000000006050 <_ZN5alloc7raw_vec19RawVec$LT$T$C$A$GT$7reserve21do_reserve_and_handle17h9291be5b74bcc631E>:
    6050:	41 56                	push   %r14
    6052:	53                   	push   %rbx
    6053:	48 83 ec 38          	sub    $0x38,%rsp
    6057:	48 01 d6             	add    %rdx,%rsi
    605a:	0f 82 ad 00 00 00    	jb     610d <_ZN5alloc7raw_vec19RawVec$LT$T$C$A$GT$7reserve21do_reserve_and_handle17h9291be5b74bcc631E+0xbd>
    6060:	49 89 fe             	mov    %rdi,%r14
    6063:	48 8b 47 08          	mov    0x8(%rdi),%rax
    6067:	48 8d 0c 00          	lea    (%rax,%rax,1),%rcx
    606b:	48 39 f1             	cmp    %rsi,%rcx
    606e:	48 0f 47 f1          	cmova  %rcx,%rsi
    6072:	48 83 fe 05          	cmp    $0x5,%rsi
    6076:	bb 04 00 00 00       	mov    $0x4,%ebx
    607b:	48 0f 43 de          	cmovae %rsi,%rbx
    607f:	31 d2                	xor    %edx,%edx
    6081:	48 89 d9             	mov    %rbx,%rcx
    6084:	48 c1 e9 3d          	shr    $0x3d,%rcx
    6088:	0f 94 c2             	sete   %dl
    608b:	48 8d 34 9d 00 00 00 	lea    0x0(,%rbx,4),%rsi
    6092:	00 
    6093:	48 c1 e2 02          	shl    $0x2,%rdx
    6097:	48 85 c0             	test   %rax,%rax
    609a:	74 1c                	je     60b8 <_ZN5alloc7raw_vec19RawVec$LT$T$C$A$GT$7reserve21do_reserve_and_handle17h9291be5b74bcc631E+0x68>
    609c:	49 8b 0e             	mov    (%r14),%rcx
    609f:	48 c1 e0 02          	shl    $0x2,%rax
    60a3:	48 89 4c 24 08       	mov    %rcx,0x8(%rsp)
    60a8:	48 89 44 24 10       	mov    %rax,0x10(%rsp)
    60ad:	48 c7 44 24 18 04 00 	movq   $0x4,0x18(%rsp)
    60b4:	00 00 
    60b6:	eb 09                	jmp    60c1 <_ZN5alloc7raw_vec19RawVec$LT$T$C$A$GT$7reserve21do_reserve_and_handle17h9291be5b74bcc631E+0x71>
    60b8:	48 c7 44 24 18 00 00 	movq   $0x0,0x18(%rsp)
    60bf:	00 00 
    60c1:	48 8d 7c 24 20       	lea    0x20(%rsp),%rdi
    60c6:	48 8d 4c 24 08       	lea    0x8(%rsp),%rcx
    60cb:	e8 50 28 00 00       	call   8920 <_ZN5alloc7raw_vec11finish_grow17h5adff831e678a477E.llvm.13526559632026943626>
    60d0:	48 83 7c 24 20 00    	cmpq   $0x0,0x20(%rsp)
    60d6:	48 8b 7c 24 28       	mov    0x28(%rsp),%rdi
    60db:	74 1c                	je     60f9 <_ZN5alloc7raw_vec19RawVec$LT$T$C$A$GT$7reserve21do_reserve_and_handle17h9291be5b74bcc631E+0xa9>
    60dd:	48 8b 74 24 30       	mov    0x30(%rsp),%rsi
    60e2:	48 b8 01 00 00 00 00 	movabs $0x8000000000000001,%rax
    60e9:	00 00 80 
    60ec:	48 39 c6             	cmp    %rax,%rsi
    60ef:	75 17                	jne    6108 <_ZN5alloc7raw_vec19RawVec$LT$T$C$A$GT$7reserve21do_reserve_and_handle17h9291be5b74bcc631E+0xb8>
    60f1:	48 83 c4 38          	add    $0x38,%rsp
    60f5:	5b                   	pop    %rbx
    60f6:	41 5e                	pop    %r14
    60f8:	c3                   	ret
    60f9:	49 89 3e             	mov    %rdi,(%r14)
    60fc:	49 89 5e 08          	mov    %rbx,0x8(%r14)
    6100:	48 83 c4 38          	add    $0x38,%rsp
    6104:	5b                   	pop    %rbx
    6105:	41 5e                	pop    %r14
    6107:	c3                   	ret
    6108:	48 85 f6             	test   %rsi,%rsi
    610b:	75 08                	jne    6115 <_ZN5alloc7raw_vec19RawVec$LT$T$C$A$GT$7reserve21do_reserve_and_handle17h9291be5b74bcc631E+0xc5>
    610d:	ff 15 3d c8 04 00    	call   *0x4c83d(%rip)        # 52950 <_GLOBAL_OFFSET_TABLE_+0x58>
    6113:	0f 0b                	ud2
    6115:	ff 15 d5 cc 04 00    	call   *0x4ccd5(%rip)        # 52df0 <_GLOBAL_OFFSET_TABLE_+0x4f8>
    611b:	0f 0b                	ud2
    611d:	0f 1f 00             	nopl   (%rax)

0000000000006120 <_ZN4core5slice4sort14break_patterns17h06c85097d35c868dE>:
    6120:	53                   	push   %rbx
    6121:	48 83 ec 20          	sub    $0x20,%rsp
    6125:	48 8d 46 ff          	lea    -0x1(%rsi),%rax
    6129:	48 0f bd c8          	bsr    %rax,%rcx
    612d:	83 f1 3f             	xor    $0x3f,%ecx
    6130:	49 c7 c0 ff ff ff ff 	mov    $0xffffffffffffffff,%r8
    6137:	49 d3 e8             	shr    %cl,%r8
    613a:	49 89 f2             	mov    %rsi,%r10
    613d:	49 d1 ea             	shr    %r10
    6140:	4d 89 d3             	mov    %r10,%r11
    6143:	49 83 e3 fe          	and    $0xfffffffffffffffe,%r11
    6147:	4d 8d 4b ff          	lea    -0x1(%r11),%r9
    614b:	89 f0                	mov    %esi,%eax
    614d:	c1 e0 0d             	shl    $0xd,%eax
    6150:	31 f0                	xor    %esi,%eax
    6152:	89 c1                	mov    %eax,%ecx
    6154:	c1 e9 11             	shr    $0x11,%ecx
    6157:	31 c1                	xor    %eax,%ecx
    6159:	89 c8                	mov    %ecx,%eax
    615b:	c1 e0 05             	shl    $0x5,%eax
    615e:	31 c8                	xor    %ecx,%eax
    6160:	89 c1                	mov    %eax,%ecx
    6162:	c1 e1 0d             	shl    $0xd,%ecx
    6165:	31 c1                	xor    %eax,%ecx
    6167:	48 c1 e0 20          	shl    $0x20,%rax
    616b:	89 ca                	mov    %ecx,%edx
    616d:	c1 ea 11             	shr    $0x11,%edx
    6170:	31 ca                	xor    %ecx,%edx
    6172:	89 d3                	mov    %edx,%ebx
    6174:	c1 e3 05             	shl    $0x5,%ebx
    6177:	31 d3                	xor    %edx,%ebx
    6179:	48 01 d8             	add    %rbx,%rax
    617c:	4c 21 c0             	and    %r8,%rax
    617f:	31 d2                	xor    %edx,%edx
    6181:	48 39 f0             	cmp    %rsi,%rax
    6184:	48 0f 43 d6          	cmovae %rsi,%rdx
    6188:	49 39 f1             	cmp    %rsi,%r9
    618b:	0f 83 89 01 00 00    	jae    631a <_ZN4core5slice4sort14break_patterns17h06c85097d35c868dE+0x1fa>
    6191:	48 29 d0             	sub    %rdx,%rax
    6194:	48 39 f0             	cmp    %rsi,%rax
    6197:	0f 83 63 01 00 00    	jae    6300 <_ZN4core5slice4sort14break_patterns17h06c85097d35c868dE+0x1e0>
    619d:	4b 8d 14 49          	lea    (%r9,%r9,2),%rdx
    61a1:	48 8d 04 40          	lea    (%rax,%rax,2),%rax
    61a5:	48 8b 4c d7 10       	mov    0x10(%rdi,%rdx,8),%rcx
    61aa:	48 89 4c 24 10       	mov    %rcx,0x10(%rsp)
    61af:	0f 10 04 d7          	movups (%rdi,%rdx,8),%xmm0
    61b3:	0f 29 04 24          	movaps %xmm0,(%rsp)
    61b7:	48 8b 4c c7 10       	mov    0x10(%rdi,%rax,8),%rcx
    61bc:	0f 10 04 c7          	movups (%rdi,%rax,8),%xmm0
    61c0:	0f 11 04 d7          	movups %xmm0,(%rdi,%rdx,8)
    61c4:	48 89 4c d7 10       	mov    %rcx,0x10(%rdi,%rdx,8)
    61c9:	48 8b 4c 24 10       	mov    0x10(%rsp),%rcx
    61ce:	48 89 4c c7 10       	mov    %rcx,0x10(%rdi,%rax,8)
    61d3:	0f 28 04 24          	movaps (%rsp),%xmm0
    61d7:	0f 11 04 c7          	movups %xmm0,(%rdi,%rax,8)
    61db:	89 d8                	mov    %ebx,%eax
    61dd:	c1 e0 0d             	shl    $0xd,%eax
    61e0:	31 d8                	xor    %ebx,%eax
    61e2:	89 c1                	mov    %eax,%ecx
    61e4:	c1 e9 11             	shr    $0x11,%ecx
    61e7:	31 c1                	xor    %eax,%ecx
    61e9:	89 c8                	mov    %ecx,%eax
    61eb:	c1 e0 05             	shl    $0x5,%eax
    61ee:	31 c8                	xor    %ecx,%eax
    61f0:	89 c1                	mov    %eax,%ecx
    61f2:	c1 e1 0d             	shl    $0xd,%ecx
    61f5:	31 c1                	xor    %eax,%ecx
    61f7:	48 c1 e0 20          	shl    $0x20,%rax
    61fb:	89 ca                	mov    %ecx,%edx
    61fd:	c1 ea 11             	shr    $0x11,%edx
    6200:	31 ca                	xor    %ecx,%edx
    6202:	89 d1                	mov    %edx,%ecx
    6204:	c1 e1 05             	shl    $0x5,%ecx
    6207:	31 d1                	xor    %edx,%ecx
    6209:	48 01 c8             	add    %rcx,%rax
    620c:	4c 21 c0             	and    %r8,%rax
    620f:	31 d2                	xor    %edx,%edx
    6211:	48 39 f0             	cmp    %rsi,%rax
    6214:	48 0f 43 d6          	cmovae %rsi,%rdx
    6218:	49 39 f3             	cmp    %rsi,%r11
    621b:	0f 83 f1 00 00 00    	jae    6312 <_ZN4core5slice4sort14break_patterns17h06c85097d35c868dE+0x1f2>
    6221:	48 29 d0             	sub    %rdx,%rax
    6224:	48 39 f0             	cmp    %rsi,%rax
    6227:	0f 83 d3 00 00 00    	jae    6300 <_ZN4core5slice4sort14break_patterns17h06c85097d35c868dE+0x1e0>
    622d:	4b 8d 14 5b          	lea    (%r11,%r11,2),%rdx
    6231:	48 8d 04 40          	lea    (%rax,%rax,2),%rax
    6235:	48 8b 5c d7 10       	mov    0x10(%rdi,%rdx,8),%rbx
    623a:	48 89 5c 24 10       	mov    %rbx,0x10(%rsp)
    623f:	0f 10 04 d7          	movups (%rdi,%rdx,8),%xmm0
    6243:	0f 29 04 24          	movaps %xmm0,(%rsp)
    6247:	48 8b 5c c7 10       	mov    0x10(%rdi,%rax,8),%rbx
    624c:	0f 10 04 c7          	movups (%rdi,%rax,8),%xmm0
    6250:	0f 11 04 d7          	movups %xmm0,(%rdi,%rdx,8)
    6254:	48 89 5c d7 10       	mov    %rbx,0x10(%rdi,%rdx,8)
    6259:	48 8b 54 24 10       	mov    0x10(%rsp),%rdx
    625e:	48 89 54 c7 10       	mov    %rdx,0x10(%rdi,%rax,8)
    6263:	0f 28 04 24          	movaps (%rsp),%xmm0
    6267:	0f 11 04 c7          	movups %xmm0,(%rdi,%rax,8)
    626b:	89 c8                	mov    %ecx,%eax
    626d:	c1 e0 0d             	shl    $0xd,%eax
    6270:	31 c8                	xor    %ecx,%eax
    6272:	89 c1                	mov    %eax,%ecx
    6274:	c1 e9 11             	shr    $0x11,%ecx
    6277:	31 c1                	xor    %eax,%ecx
    6279:	89 c8                	mov    %ecx,%eax
    627b:	c1 e0 05             	shl    $0x5,%eax
    627e:	31 c8                	xor    %ecx,%eax
    6280:	89 c1                	mov    %eax,%ecx
    6282:	c1 e1 0d             	shl    $0xd,%ecx
    6285:	31 c1                	xor    %eax,%ecx
    6287:	48 89 c2             	mov    %rax,%rdx
    628a:	48 c1 e2 20          	shl    $0x20,%rdx
    628e:	89 cb                	mov    %ecx,%ebx
    6290:	c1 eb 11             	shr    $0x11,%ebx
    6293:	31 cb                	xor    %ecx,%ebx
    6295:	89 d8                	mov    %ebx,%eax
    6297:	c1 e0 05             	shl    $0x5,%eax
    629a:	31 d8                	xor    %ebx,%eax
    629c:	48 09 d0             	or     %rdx,%rax
    629f:	4c 21 c0             	and    %r8,%rax
    62a2:	31 c9                	xor    %ecx,%ecx
    62a4:	48 39 f0             	cmp    %rsi,%rax
    62a7:	48 0f 43 ce          	cmovae %rsi,%rcx
    62ab:	49 83 ca 01          	or     $0x1,%r10
    62af:	49 39 f2             	cmp    %rsi,%r10
    62b2:	73 63                	jae    6317 <_ZN4core5slice4sort14break_patterns17h06c85097d35c868dE+0x1f7>
    62b4:	48 29 c8             	sub    %rcx,%rax
    62b7:	48 39 f0             	cmp    %rsi,%rax
    62ba:	73 44                	jae    6300 <_ZN4core5slice4sort14break_patterns17h06c85097d35c868dE+0x1e0>
    62bc:	4b 8d 0c 52          	lea    (%r10,%r10,2),%rcx
    62c0:	48 8d 04 40          	lea    (%rax,%rax,2),%rax
    62c4:	48 8b 54 cf 10       	mov    0x10(%rdi,%rcx,8),%rdx
    62c9:	48 89 54 24 10       	mov    %rdx,0x10(%rsp)
    62ce:	0f 10 04 cf          	movups (%rdi,%rcx,8),%xmm0
    62d2:	0f 29 04 24          	movaps %xmm0,(%rsp)
    62d6:	48 8b 54 c7 10       	mov    0x10(%rdi,%rax,8),%rdx
    62db:	0f 10 04 c7          	movups (%rdi,%rax,8),%xmm0
    62df:	0f 11 04 cf          	movups %xmm0,(%rdi,%rcx,8)
    62e3:	48 89 54 cf 10       	mov    %rdx,0x10(%rdi,%rcx,8)
    62e8:	48 8b 4c 24 10       	mov    0x10(%rsp),%rcx
    62ed:	48 89 4c c7 10       	mov    %rcx,0x10(%rdi,%rax,8)
    62f2:	0f 28 04 24          	movaps (%rsp),%xmm0
    62f6:	0f 11 04 c7          	movups %xmm0,(%rdi,%rax,8)
    62fa:	48 83 c4 20          	add    $0x20,%rsp
    62fe:	5b                   	pop    %rbx
    62ff:	c3                   	ret
    6300:	48 8d 15 19 9f 04 00 	lea    0x49f19(%rip),%rdx        # 50220 <anon.1e772d87cb7ab8eb3bdc2c5d344d7c2b.0.llvm.13921790192248287823+0x138>
    6307:	48 89 c7             	mov    %rax,%rdi
    630a:	ff 15 10 c6 04 00    	call   *0x4c610(%rip)        # 52920 <_GLOBAL_OFFSET_TABLE_+0x28>
    6310:	0f 0b                	ud2
    6312:	4d 89 d9             	mov    %r11,%r9
    6315:	eb 03                	jmp    631a <_ZN4core5slice4sort14break_patterns17h06c85097d35c868dE+0x1fa>
    6317:	4d 89 d1             	mov    %r10,%r9
    631a:	48 8d 15 ff 9e 04 00 	lea    0x49eff(%rip),%rdx        # 50220 <anon.1e772d87cb7ab8eb3bdc2c5d344d7c2b.0.llvm.13921790192248287823+0x138>
    6321:	4c 89 cf             	mov    %r9,%rdi
    6324:	ff 15 f6 c5 04 00    	call   *0x4c5f6(%rip)        # 52920 <_GLOBAL_OFFSET_TABLE_+0x28>
    632a:	0f 0b                	ud2
    632c:	0f 1f 40 00          	nopl   0x0(%rax)

0000000000006330 <_ZN4core5slice4sort22partial_insertion_sort17h9e79ce4a39f3ba53E>:
    6330:	55                   	push   %rbp
    6331:	41 57                	push   %r15
    6333:	41 56                	push   %r14
    6335:	41 55                	push   %r13
    6337:	41 54                	push   %r12
    6339:	53                   	push   %rbx
    633a:	48 83 ec 18          	sub    $0x18,%rsp
    633e:	48 83 fe 32          	cmp    $0x32,%rsi
    6342:	73 61                	jae    63a5 <_ZN4core5slice4sort22partial_insertion_sort17h9e79ce4a39f3ba53E+0x75>
    6344:	b8 01 00 00 00       	mov    $0x1,%eax
    6349:	48 83 fe 01          	cmp    $0x1,%rsi
    634d:	0f 86 61 02 00 00    	jbe    65b4 <_ZN4core5slice4sort22partial_insertion_sort17h9e79ce4a39f3ba53E+0x284>
    6353:	48 8b 5f 18          	mov    0x18(%rdi),%rbx
    6357:	48 3b 1f             	cmp    (%rdi),%rbx
    635a:	0f 82 54 02 00 00    	jb     65b4 <_ZN4core5slice4sort22partial_insertion_sort17h9e79ce4a39f3ba53E+0x284>
    6360:	ba 02 00 00 00       	mov    $0x2,%edx
    6365:	48 29 f2             	sub    %rsi,%rdx
    6368:	48 83 c7 30          	add    $0x30,%rdi
    636c:	b8 01 00 00 00       	mov    $0x1,%eax
    6371:	66 66 66 66 66 66 2e 	data16 data16 data16 data16 data16 cs nopw 0x0(%rax,%rax,1)
    6378:	0f 1f 84 00 00 00 00 
    637f:	00 
    6380:	48 8d 0c 02          	lea    (%rdx,%rax,1),%rcx
    6384:	48 83 f9 01          	cmp    $0x1,%rcx
    6388:	0f 84 23 02 00 00    	je     65b1 <_ZN4core5slice4sort22partial_insertion_sort17h9e79ce4a39f3ba53E+0x281>
    638e:	48 ff c0             	inc    %rax
    6391:	48 8b 0f             	mov    (%rdi),%rcx
    6394:	48 83 c7 18          	add    $0x18,%rdi
    6398:	48 39 d9             	cmp    %rbx,%rcx
    639b:	48 89 cb             	mov    %rcx,%rbx
    639e:	73 e0                	jae    6380 <_ZN4core5slice4sort22partial_insertion_sort17h9e79ce4a39f3ba53E+0x50>
    63a0:	e9 0f 02 00 00       	jmp    65b4 <_ZN4core5slice4sort22partial_insertion_sort17h9e79ce4a39f3ba53E+0x284>
    63a5:	4c 8d 76 ff          	lea    -0x1(%rsi),%r14
    63a9:	4c 8d 4f d0          	lea    -0x30(%rdi),%r9
    63ad:	4c 8d 56 fe          	lea    -0x2(%rsi),%r10
    63b1:	b9 01 00 00 00       	mov    $0x1,%ecx
    63b6:	45 31 db             	xor    %r11d,%r11d
    63b9:	eb 1b                	jmp    63d6 <_ZN4core5slice4sort22partial_insertion_sort17h9e79ce4a39f3ba53E+0xa6>
    63bb:	49 89 d7             	mov    %rdx,%r15
    63be:	66 90                	xchg   %ax,%ax
    63c0:	4d 89 07             	mov    %r8,(%r15)
    63c3:	0f 28 04 24          	movaps (%rsp),%xmm0
    63c7:	41 0f 11 47 08       	movups %xmm0,0x8(%r15)
    63cc:	49 83 fb 05          	cmp    $0x5,%r11
    63d0:	0f 84 e4 01 00 00    	je     65ba <_ZN4core5slice4sort22partial_insertion_sort17h9e79ce4a39f3ba53E+0x28a>
    63d6:	48 39 f1             	cmp    %rsi,%rcx
    63d9:	73 45                	jae    6420 <_ZN4core5slice4sort22partial_insertion_sort17h9e79ce4a39f3ba53E+0xf0>
    63db:	48 8d 04 49          	lea    (%rcx,%rcx,2),%rax
    63df:	48 8b 1c c7          	mov    (%rdi,%rax,8),%rbx
    63e3:	b2 01                	mov    $0x1,%dl
    63e5:	48 3b 5c c7 e8       	cmp    -0x18(%rdi,%rax,8),%rbx
    63ea:	72 36                	jb     6422 <_ZN4core5slice4sort22partial_insertion_sort17h9e79ce4a39f3ba53E+0xf2>
    63ec:	48 8d 04 c7          	lea    (%rdi,%rax,8),%rax
    63f0:	49 39 ce             	cmp    %rcx,%r14
    63f3:	0f 84 b4 01 00 00    	je     65ad <_ZN4core5slice4sort22partial_insertion_sort17h9e79ce4a39f3ba53E+0x27d>
    63f9:	48 8b 50 18          	mov    0x18(%rax),%rdx
    63fd:	48 8d 58 18          	lea    0x18(%rax),%rbx
    6401:	48 ff c1             	inc    %rcx
    6404:	48 3b 10             	cmp    (%rax),%rdx
    6407:	48 89 d8             	mov    %rbx,%rax
    640a:	73 e4                	jae    63f0 <_ZN4core5slice4sort22partial_insertion_sort17h9e79ce4a39f3ba53E+0xc0>
    640c:	48 39 f1             	cmp    %rsi,%rcx
    640f:	0f 92 c2             	setb   %dl
    6412:	eb 0e                	jmp    6422 <_ZN4core5slice4sort22partial_insertion_sort17h9e79ce4a39f3ba53E+0xf2>
    6414:	66 66 66 2e 0f 1f 84 	data16 data16 cs nopw 0x0(%rax,%rax,1)
    641b:	00 00 00 00 00 
    6420:	31 d2                	xor    %edx,%edx
    6422:	49 89 f4             	mov    %rsi,%r12
    6425:	49 29 cc             	sub    %rcx,%r12
    6428:	0f 94 c0             	sete   %al
    642b:	0f 84 7c 01 00 00    	je     65ad <_ZN4core5slice4sort22partial_insertion_sort17h9e79ce4a39f3ba53E+0x27d>
    6431:	4c 8d 41 ff          	lea    -0x1(%rcx),%r8
    6435:	49 39 f0             	cmp    %rsi,%r8
    6438:	0f 83 8b 01 00 00    	jae    65c9 <_ZN4core5slice4sort22partial_insertion_sort17h9e79ce4a39f3ba53E+0x299>
    643e:	84 d2                	test   %dl,%dl
    6440:	0f 84 95 01 00 00    	je     65db <_ZN4core5slice4sort22partial_insertion_sort17h9e79ce4a39f3ba53E+0x2ab>
    6446:	4b 8d 14 40          	lea    (%r8,%r8,2),%rdx
    644a:	4c 8d 3c 49          	lea    (%rcx,%rcx,2),%r15
    644e:	48 8b 5c d7 10       	mov    0x10(%rdi,%rdx,8),%rbx
    6453:	48 89 5c 24 10       	mov    %rbx,0x10(%rsp)
    6458:	0f 10 04 d7          	movups (%rdi,%rdx,8),%xmm0
    645c:	0f 29 04 24          	movaps %xmm0,(%rsp)
    6460:	4a 8b 5c ff 10       	mov    0x10(%rdi,%r15,8),%rbx
    6465:	48 89 5c d7 10       	mov    %rbx,0x10(%rdi,%rdx,8)
    646a:	42 0f 10 04 ff       	movups (%rdi,%r15,8),%xmm0
    646f:	0f 11 04 d7          	movups %xmm0,(%rdi,%rdx,8)
    6473:	48 8b 5c 24 10       	mov    0x10(%rsp),%rbx
    6478:	4a 89 5c ff 10       	mov    %rbx,0x10(%rdi,%r15,8)
    647d:	0f 28 04 24          	movaps (%rsp),%xmm0
    6481:	42 0f 11 04 ff       	movups %xmm0,(%rdi,%r15,8)
    6486:	48 83 f9 02          	cmp    $0x2,%rcx
    648a:	0f 82 8d 00 00 00    	jb     651d <_ZN4core5slice4sort22partial_insertion_sort17h9e79ce4a39f3ba53E+0x1ed>
    6490:	48 8d 1c d7          	lea    (%rdi,%rdx,8),%rbx
    6494:	48 8d 51 fe          	lea    -0x2(%rcx),%rdx
    6498:	4c 8d 2c 52          	lea    (%rdx,%rdx,2),%r13
    649c:	4c 8b 03             	mov    (%rbx),%r8
    649f:	4e 3b 04 ef          	cmp    (%rdi,%r13,8),%r8
    64a3:	73 78                	jae    651d <_ZN4core5slice4sort22partial_insertion_sort17h9e79ce4a39f3ba53E+0x1ed>
    64a5:	4e 8d 2c ef          	lea    (%rdi,%r13,8),%r13
    64a9:	0f 10 43 08          	movups 0x8(%rbx),%xmm0
    64ad:	0f 29 04 24          	movaps %xmm0,(%rsp)
    64b1:	49 8b 6d 10          	mov    0x10(%r13),%rbp
    64b5:	48 89 6b 10          	mov    %rbp,0x10(%rbx)
    64b9:	41 0f 10 45 00       	movups 0x0(%r13),%xmm0
    64be:	0f 11 03             	movups %xmm0,(%rbx)
    64c1:	48 85 d2             	test   %rdx,%rdx
    64c4:	74 4a                	je     6510 <_ZN4core5slice4sort22partial_insertion_sort17h9e79ce4a39f3ba53E+0x1e0>
    64c6:	4e 3b 44 ff b8       	cmp    -0x48(%rdi,%r15,8),%r8
    64cb:	73 43                	jae    6510 <_ZN4core5slice4sort22partial_insertion_sort17h9e79ce4a39f3ba53E+0x1e0>
    64cd:	4b 8d 1c f9          	lea    (%r9,%r15,8),%rbx
    64d1:	66 66 66 66 66 66 2e 	data16 data16 data16 data16 data16 cs nopw 0x0(%rax,%rax,1)
    64d8:	0f 1f 84 00 00 00 00 
    64df:	00 
    64e0:	48 8b 6b f8          	mov    -0x8(%rbx),%rbp
    64e4:	48 89 6b 10          	mov    %rbp,0x10(%rbx)
    64e8:	0f 10 43 e8          	movups -0x18(%rbx),%xmm0
    64ec:	0f 11 03             	movups %xmm0,(%rbx)
    64ef:	48 ff ca             	dec    %rdx
    64f2:	74 0f                	je     6503 <_ZN4core5slice4sort22partial_insertion_sort17h9e79ce4a39f3ba53E+0x1d3>
    64f4:	4c 8d 6b e8          	lea    -0x18(%rbx),%r13
    64f8:	4c 3b 43 d0          	cmp    -0x30(%rbx),%r8
    64fc:	4c 89 eb             	mov    %r13,%rbx
    64ff:	72 df                	jb     64e0 <_ZN4core5slice4sort22partial_insertion_sort17h9e79ce4a39f3ba53E+0x1b0>
    6501:	eb 0d                	jmp    6510 <_ZN4core5slice4sort22partial_insertion_sort17h9e79ce4a39f3ba53E+0x1e0>
    6503:	49 89 fd             	mov    %rdi,%r13
    6506:	66 2e 0f 1f 84 00 00 	cs nopw 0x0(%rax,%rax,1)
    650d:	00 00 00 
    6510:	4d 89 45 00          	mov    %r8,0x0(%r13)
    6514:	0f 28 04 24          	movaps (%rsp),%xmm0
    6518:	41 0f 11 45 08       	movups %xmm0,0x8(%r13)
    651d:	49 ff c3             	inc    %r11
    6520:	49 83 fc 02          	cmp    $0x2,%r12
    6524:	0f 82 a2 fe ff ff    	jb     63cc <_ZN4core5slice4sort22partial_insertion_sort17h9e79ce4a39f3ba53E+0x9c>
    652a:	4a 8d 14 ff          	lea    (%rdi,%r15,8),%rdx
    652e:	4c 8b 02             	mov    (%rdx),%r8
    6531:	4c 39 42 18          	cmp    %r8,0x18(%rdx)
    6535:	0f 83 91 fe ff ff    	jae    63cc <_ZN4core5slice4sort22partial_insertion_sort17h9e79ce4a39f3ba53E+0x9c>
    653b:	4c 8d 7a 18          	lea    0x18(%rdx),%r15
    653f:	0f 10 42 08          	movups 0x8(%rdx),%xmm0
    6543:	0f 29 04 24          	movaps %xmm0,(%rsp)
    6547:	49 8b 5f 10          	mov    0x10(%r15),%rbx
    654b:	48 89 5a 10          	mov    %rbx,0x10(%rdx)
    654f:	41 0f 10 07          	movups (%r15),%xmm0
    6553:	0f 11 02             	movups %xmm0,(%rdx)
    6556:	49 83 fc 03          	cmp    $0x3,%r12
    655a:	0f 82 60 fe ff ff    	jb     63c0 <_ZN4core5slice4sort22partial_insertion_sort17h9e79ce4a39f3ba53E+0x90>
    6560:	4c 39 42 30          	cmp    %r8,0x30(%rdx)
    6564:	0f 83 56 fe ff ff    	jae    63c0 <_ZN4core5slice4sort22partial_insertion_sort17h9e79ce4a39f3ba53E+0x90>
    656a:	48 83 c2 30          	add    $0x30,%rdx
    656e:	4c 89 d3             	mov    %r10,%rbx
    6571:	48 29 cb             	sub    %rcx,%rbx
    6574:	66 66 66 2e 0f 1f 84 	data16 data16 cs nopw 0x0(%rax,%rax,1)
    657b:	00 00 00 00 00 
    6580:	48 8b 6a 10          	mov    0x10(%rdx),%rbp
    6584:	48 89 6a f8          	mov    %rbp,-0x8(%rdx)
    6588:	0f 10 02             	movups (%rdx),%xmm0
    658b:	0f 11 42 e8          	movups %xmm0,-0x18(%rdx)
    658f:	48 ff cb             	dec    %rbx
    6592:	0f 84 23 fe ff ff    	je     63bb <_ZN4core5slice4sort22partial_insertion_sort17h9e79ce4a39f3ba53E+0x8b>
    6598:	49 89 d7             	mov    %rdx,%r15
    659b:	48 8d 6a 18          	lea    0x18(%rdx),%rbp
    659f:	4c 39 42 18          	cmp    %r8,0x18(%rdx)
    65a3:	48 89 ea             	mov    %rbp,%rdx
    65a6:	72 d8                	jb     6580 <_ZN4core5slice4sort22partial_insertion_sort17h9e79ce4a39f3ba53E+0x250>
    65a8:	e9 13 fe ff ff       	jmp    63c0 <_ZN4core5slice4sort22partial_insertion_sort17h9e79ce4a39f3ba53E+0x90>
    65ad:	b0 01                	mov    $0x1,%al
    65af:	eb 09                	jmp    65ba <_ZN4core5slice4sort22partial_insertion_sort17h9e79ce4a39f3ba53E+0x28a>
    65b1:	48 89 f0             	mov    %rsi,%rax
    65b4:	48 39 f0             	cmp    %rsi,%rax
    65b7:	0f 94 c0             	sete   %al
    65ba:	48 83 c4 18          	add    $0x18,%rsp
    65be:	5b                   	pop    %rbx
    65bf:	41 5c                	pop    %r12
    65c1:	41 5d                	pop    %r13
    65c3:	41 5e                	pop    %r14
    65c5:	41 5f                	pop    %r15
    65c7:	5d                   	pop    %rbp
    65c8:	c3                   	ret
    65c9:	48 8d 15 68 9c 04 00 	lea    0x49c68(%rip),%rdx        # 50238 <anon.1e772d87cb7ab8eb3bdc2c5d344d7c2b.0.llvm.13921790192248287823+0x150>
    65d0:	4c 89 c7             	mov    %r8,%rdi
    65d3:	ff 15 47 c3 04 00    	call   *0x4c347(%rip)        # 52920 <_GLOBAL_OFFSET_TABLE_+0x28>
    65d9:	0f 0b                	ud2
    65db:	48 8d 15 56 9c 04 00 	lea    0x49c56(%rip),%rdx        # 50238 <anon.1e772d87cb7ab8eb3bdc2c5d344d7c2b.0.llvm.13921790192248287823+0x150>
    65e2:	48 89 cf             	mov    %rcx,%rdi
    65e5:	ff 15 35 c3 04 00    	call   *0x4c335(%rip)        # 52920 <_GLOBAL_OFFSET_TABLE_+0x28>
    65eb:	0f 0b                	ud2
    65ed:	0f 1f 00             	nopl   (%rax)

00000000000065f0 <_ZN4core5slice4sort8heapsort17h9909094cd60fe639E>:
    65f0:	48 83 ec 18          	sub    $0x18,%rsp
    65f4:	48 83 fe 02          	cmp    $0x2,%rsi
    65f8:	0f 82 1f 02 00 00    	jb     681d <_ZN4core5slice4sort8heapsort17h9909094cd60fe639E+0x22d>
    65fe:	49 89 f2             	mov    %rsi,%r10
    6601:	49 d1 ea             	shr    %r10
    6604:	eb 13                	jmp    6619 <_ZN4core5slice4sort8heapsort17h9909094cd60fe639E+0x29>
    6606:	66 2e 0f 1f 84 00 00 	cs nopw 0x0(%rax,%rax,1)
    660d:	00 00 00 
    6610:	4d 85 d2             	test   %r10,%r10
    6613:	0f 84 e4 00 00 00    	je     66fd <_ZN4core5slice4sort8heapsort17h9909094cd60fe639E+0x10d>
    6619:	4c 89 d1             	mov    %r10,%rcx
    661c:	49 ff ca             	dec    %r10
    661f:	48 8d 04 09          	lea    (%rcx,%rcx,1),%rax
    6623:	48 ff c8             	dec    %rax
    6626:	48 39 f0             	cmp    %rsi,%rax
    6629:	73 e5                	jae    6610 <_ZN4core5slice4sort8heapsort17h9909094cd60fe639E+0x20>
    662b:	48 01 c9             	add    %rcx,%rcx
    662e:	48 83 c1 fe          	add    $0xfffffffffffffffe,%rcx
    6632:	4d 89 d0             	mov    %r10,%r8
    6635:	66 66 2e 0f 1f 84 00 	data16 cs nopw 0x0(%rax,%rax,1)
    663c:	00 00 00 00 
    6640:	48 83 c1 02          	add    $0x2,%rcx
    6644:	48 39 f1             	cmp    %rsi,%rcx
    6647:	73 37                	jae    6680 <_ZN4core5slice4sort8heapsort17h9909094cd60fe639E+0x90>
    6649:	48 8d 14 40          	lea    (%rax,%rax,2),%rdx
    664d:	4c 8d 0c 49          	lea    (%rcx,%rcx,2),%r9
    6651:	48 8b 14 d7          	mov    (%rdi,%rdx,8),%rdx
    6655:	4a 3b 14 cf          	cmp    (%rdi,%r9,8),%rdx
    6659:	0f 92 c2             	setb   %dl
    665c:	f6 c2 01             	test   $0x1,%dl
    665f:	75 03                	jne    6664 <_ZN4core5slice4sort8heapsort17h9909094cd60fe639E+0x74>
    6661:	48 89 c1             	mov    %rax,%rcx
    6664:	49 89 c9             	mov    %rcx,%r9
    6667:	49 39 f0             	cmp    %rsi,%r8
    666a:	72 20                	jb     668c <_ZN4core5slice4sort8heapsort17h9909094cd60fe639E+0x9c>
    666c:	e9 b1 01 00 00       	jmp    6822 <_ZN4core5slice4sort8heapsort17h9909094cd60fe639E+0x232>
    6671:	66 66 66 66 66 66 2e 	data16 data16 data16 data16 data16 cs nopw 0x0(%rax,%rax,1)
    6678:	0f 1f 84 00 00 00 00 
    667f:	00 
    6680:	49 89 c1             	mov    %rax,%r9
    6683:	49 39 f0             	cmp    %rsi,%r8
    6686:	0f 83 96 01 00 00    	jae    6822 <_ZN4core5slice4sort8heapsort17h9909094cd60fe639E+0x232>
    668c:	49 39 f1             	cmp    %rsi,%r9
    668f:	0f 83 9f 01 00 00    	jae    6834 <_ZN4core5slice4sort8heapsort17h9909094cd60fe639E+0x244>
    6695:	4b 8d 04 40          	lea    (%r8,%r8,2),%rax
    6699:	4b 8d 0c 49          	lea    (%r9,%r9,2),%rcx
    669d:	48 8b 14 c7          	mov    (%rdi,%rax,8),%rdx
    66a1:	48 3b 14 cf          	cmp    (%rdi,%rcx,8),%rdx
    66a5:	0f 83 65 ff ff ff    	jae    6610 <_ZN4core5slice4sort8heapsort17h9909094cd60fe639E+0x20>
    66ab:	48 8d 04 c7          	lea    (%rdi,%rax,8),%rax
    66af:	48 8d 0c cf          	lea    (%rdi,%rcx,8),%rcx
    66b3:	48 8b 50 10          	mov    0x10(%rax),%rdx
    66b7:	48 89 54 24 10       	mov    %rdx,0x10(%rsp)
    66bc:	0f 10 00             	movups (%rax),%xmm0
    66bf:	0f 29 04 24          	movaps %xmm0,(%rsp)
    66c3:	48 8b 51 10          	mov    0x10(%rcx),%rdx
    66c7:	0f 10 01             	movups (%rcx),%xmm0
    66ca:	0f 11 00             	movups %xmm0,(%rax)
    66cd:	48 89 50 10          	mov    %rdx,0x10(%rax)
    66d1:	48 8b 44 24 10       	mov    0x10(%rsp),%rax
    66d6:	48 89 41 10          	mov    %rax,0x10(%rcx)
    66da:	0f 28 04 24          	movaps (%rsp),%xmm0
    66de:	0f 11 01             	movups %xmm0,(%rcx)
    66e1:	4b 8d 0c 09          	lea    (%r9,%r9,1),%rcx
    66e5:	4b 8d 04 09          	lea    (%r9,%r9,1),%rax
    66e9:	48 ff c0             	inc    %rax
    66ec:	4d 89 c8             	mov    %r9,%r8
    66ef:	48 39 f0             	cmp    %rsi,%rax
    66f2:	0f 82 48 ff ff ff    	jb     6640 <_ZN4core5slice4sort8heapsort17h9909094cd60fe639E+0x50>
    66f8:	e9 13 ff ff ff       	jmp    6610 <_ZN4core5slice4sort8heapsort17h9909094cd60fe639E+0x20>
    66fd:	48 83 fe 02          	cmp    $0x2,%rsi
    6701:	0f 82 16 01 00 00    	jb     681d <_ZN4core5slice4sort8heapsort17h9909094cd60fe639E+0x22d>
    6707:	49 89 f0             	mov    %rsi,%r8
    670a:	eb 0e                	jmp    671a <_ZN4core5slice4sort8heapsort17h9909094cd60fe639E+0x12a>
    670c:	0f 1f 40 00          	nopl   0x0(%rax)
    6710:	49 83 f8 01          	cmp    $0x1,%r8
    6714:	0f 86 03 01 00 00    	jbe    681d <_ZN4core5slice4sort8heapsort17h9909094cd60fe639E+0x22d>
    671a:	49 ff c8             	dec    %r8
    671d:	49 39 f0             	cmp    %rsi,%r8
    6720:	0f 83 41 01 00 00    	jae    6867 <_ZN4core5slice4sort8heapsort17h9909094cd60fe639E+0x277>
    6726:	4b 8d 04 40          	lea    (%r8,%r8,2),%rax
    672a:	48 8b 4f 10          	mov    0x10(%rdi),%rcx
    672e:	48 89 4c 24 10       	mov    %rcx,0x10(%rsp)
    6733:	0f 10 07             	movups (%rdi),%xmm0
    6736:	0f 29 04 24          	movaps %xmm0,(%rsp)
    673a:	48 8b 4c c7 10       	mov    0x10(%rdi,%rax,8),%rcx
    673f:	0f 10 04 c7          	movups (%rdi,%rax,8),%xmm0
    6743:	0f 11 07             	movups %xmm0,(%rdi)
    6746:	48 89 4f 10          	mov    %rcx,0x10(%rdi)
    674a:	48 8b 4c 24 10       	mov    0x10(%rsp),%rcx
    674f:	48 89 4c c7 10       	mov    %rcx,0x10(%rdi,%rax,8)
    6754:	0f 28 04 24          	movaps (%rsp),%xmm0
    6758:	0f 11 04 c7          	movups %xmm0,(%rdi,%rax,8)
    675c:	49 83 f8 02          	cmp    $0x2,%r8
    6760:	0f 82 b7 00 00 00    	jb     681d <_ZN4core5slice4sort8heapsort17h9909094cd60fe639E+0x22d>
    6766:	ba 01 00 00 00       	mov    $0x1,%edx
    676b:	31 c9                	xor    %ecx,%ecx
    676d:	45 31 c9             	xor    %r9d,%r9d
    6770:	48 83 c1 02          	add    $0x2,%rcx
    6774:	4c 39 c1             	cmp    %r8,%rcx
    6777:	73 27                	jae    67a0 <_ZN4core5slice4sort8heapsort17h9909094cd60fe639E+0x1b0>
    6779:	48 8d 04 52          	lea    (%rdx,%rdx,2),%rax
    677d:	4c 8d 14 49          	lea    (%rcx,%rcx,2),%r10
    6781:	48 8b 04 c7          	mov    (%rdi,%rax,8),%rax
    6785:	4a 3b 04 d7          	cmp    (%rdi,%r10,8),%rax
    6789:	0f 92 c0             	setb   %al
    678c:	a8 01                	test   $0x1,%al
    678e:	75 03                	jne    6793 <_ZN4core5slice4sort8heapsort17h9909094cd60fe639E+0x1a3>
    6790:	48 89 d1             	mov    %rdx,%rcx
    6793:	49 89 ca             	mov    %rcx,%r10
    6796:	eb 0b                	jmp    67a3 <_ZN4core5slice4sort8heapsort17h9909094cd60fe639E+0x1b3>
    6798:	0f 1f 84 00 00 00 00 	nopl   0x0(%rax,%rax,1)
    679f:	00 
    67a0:	49 89 d2             	mov    %rdx,%r10
    67a3:	4d 39 c1             	cmp    %r8,%r9
    67a6:	0f 83 9a 00 00 00    	jae    6846 <_ZN4core5slice4sort8heapsort17h9909094cd60fe639E+0x256>
    67ac:	4d 39 c2             	cmp    %r8,%r10
    67af:	0f 83 9d 00 00 00    	jae    6852 <_ZN4core5slice4sort8heapsort17h9909094cd60fe639E+0x262>
    67b5:	4b 8d 0c 49          	lea    (%r9,%r9,2),%rcx
    67b9:	4b 8d 14 52          	lea    (%r10,%r10,2),%rdx
    67bd:	48 8b 04 cf          	mov    (%rdi,%rcx,8),%rax
    67c1:	48 3b 04 d7          	cmp    (%rdi,%rdx,8),%rax
    67c5:	0f 83 45 ff ff ff    	jae    6710 <_ZN4core5slice4sort8heapsort17h9909094cd60fe639E+0x120>
    67cb:	48 8d 04 cf          	lea    (%rdi,%rcx,8),%rax
    67cf:	48 8d 0c d7          	lea    (%rdi,%rdx,8),%rcx
    67d3:	48 8b 50 10          	mov    0x10(%rax),%rdx
    67d7:	48 89 54 24 10       	mov    %rdx,0x10(%rsp)
    67dc:	0f 10 00             	movups (%rax),%xmm0
    67df:	0f 29 04 24          	movaps %xmm0,(%rsp)
    67e3:	48 8b 51 10          	mov    0x10(%rcx),%rdx
    67e7:	0f 10 01             	movups (%rcx),%xmm0
    67ea:	0f 11 00             	movups %xmm0,(%rax)
    67ed:	48 89 50 10          	mov    %rdx,0x10(%rax)
    67f1:	48 8b 44 24 10       	mov    0x10(%rsp),%rax
    67f6:	48 89 41 10          	mov    %rax,0x10(%rcx)
    67fa:	0f 28 04 24          	movaps (%rsp),%xmm0
    67fe:	0f 11 01             	movups %xmm0,(%rcx)
    6801:	4b 8d 0c 12          	lea    (%r10,%r10,1),%rcx
    6805:	4b 8d 14 12          	lea    (%r10,%r10,1),%rdx
    6809:	48 ff c2             	inc    %rdx
    680c:	4d 89 d1             	mov    %r10,%r9
    680f:	4c 39 c2             	cmp    %r8,%rdx
    6812:	0f 82 58 ff ff ff    	jb     6770 <_ZN4core5slice4sort8heapsort17h9909094cd60fe639E+0x180>
    6818:	e9 f3 fe ff ff       	jmp    6710 <_ZN4core5slice4sort8heapsort17h9909094cd60fe639E+0x120>
    681d:	48 83 c4 18          	add    $0x18,%rsp
    6821:	c3                   	ret
    6822:	48 8d 15 6f 9a 04 00 	lea    0x49a6f(%rip),%rdx        # 50298 <anon.1e772d87cb7ab8eb3bdc2c5d344d7c2b.0.llvm.13921790192248287823+0x1b0>
    6829:	4c 89 c7             	mov    %r8,%rdi
    682c:	ff 15 ee c0 04 00    	call   *0x4c0ee(%rip)        # 52920 <_GLOBAL_OFFSET_TABLE_+0x28>
    6832:	0f 0b                	ud2
    6834:	48 8d 15 75 9a 04 00 	lea    0x49a75(%rip),%rdx        # 502b0 <anon.1e772d87cb7ab8eb3bdc2c5d344d7c2b.0.llvm.13921790192248287823+0x1c8>
    683b:	4c 89 cf             	mov    %r9,%rdi
    683e:	ff 15 dc c0 04 00    	call   *0x4c0dc(%rip)        # 52920 <_GLOBAL_OFFSET_TABLE_+0x28>
    6844:	0f 0b                	ud2
    6846:	48 8d 15 4b 9a 04 00 	lea    0x49a4b(%rip),%rdx        # 50298 <anon.1e772d87cb7ab8eb3bdc2c5d344d7c2b.0.llvm.13921790192248287823+0x1b0>
    684d:	4c 89 cf             	mov    %r9,%rdi
    6850:	eb 0a                	jmp    685c <_ZN4core5slice4sort8heapsort17h9909094cd60fe639E+0x26c>
    6852:	48 8d 15 57 9a 04 00 	lea    0x49a57(%rip),%rdx        # 502b0 <anon.1e772d87cb7ab8eb3bdc2c5d344d7c2b.0.llvm.13921790192248287823+0x1c8>
    6859:	4c 89 d7             	mov    %r10,%rdi
    685c:	4c 89 c6             	mov    %r8,%rsi
    685f:	ff 15 bb c0 04 00    	call   *0x4c0bb(%rip)        # 52920 <_GLOBAL_OFFSET_TABLE_+0x28>
    6865:	0f 0b                	ud2
    6867:	48 8d 15 12 9a 04 00 	lea    0x49a12(%rip),%rdx        # 50280 <anon.1e772d87cb7ab8eb3bdc2c5d344d7c2b.0.llvm.13921790192248287823+0x198>
    686e:	4c 89 c7             	mov    %r8,%rdi
    6871:	ff 15 a9 c0 04 00    	call   *0x4c0a9(%rip)        # 52920 <_GLOBAL_OFFSET_TABLE_+0x28>
    6877:	0f 0b                	ud2
    6879:	0f 1f 80 00 00 00 00 	nopl   0x0(%rax)

0000000000006880 <_ZN4core9panicking13assert_failed17h0eff5818a8903478E>:
    6880:	48 83 ec 58          	sub    $0x58,%rsp
    6884:	48 89 74 24 10       	mov    %rsi,0x10(%rsp)
    6889:	48 89 54 24 18       	mov    %rdx,0x18(%rsp)
    688e:	0f 10 01             	movups (%rcx),%xmm0
    6891:	0f 10 49 10          	movups 0x10(%rcx),%xmm1
    6895:	0f 10 51 20          	movups 0x20(%rcx),%xmm2
    6899:	0f 29 54 24 40       	movaps %xmm2,0x40(%rsp)
    689e:	0f 29 4c 24 30       	movaps %xmm1,0x30(%rsp)
    68a3:	0f 29 44 24 20       	movaps %xmm0,0x20(%rsp)
    68a8:	4c 89 04 24          	mov    %r8,(%rsp)
    68ac:	48 8d 15 fd 9a 04 00 	lea    0x49afd(%rip),%rdx        # 503b0 <anon.1e772d87cb7ab8eb3bdc2c5d344d7c2b.0.llvm.13921790192248287823+0x2c8>
    68b3:	48 8d 74 24 10       	lea    0x10(%rsp),%rsi
    68b8:	48 8d 4c 24 18       	lea    0x18(%rsp),%rcx
    68bd:	4c 8d 4c 24 20       	lea    0x20(%rsp),%r9
    68c2:	49 89 d0             	mov    %rdx,%r8
    68c5:	ff 15 f5 c6 04 00    	call   *0x4c6f5(%rip)        # 52fc0 <_GLOBAL_OFFSET_TABLE_+0x6c8>
    68cb:	0f 0b                	ud2
    68cd:	0f 1f 00             	nopl   (%rax)

00000000000068d0 <_ZN4core9panicking13assert_failed17hff03fbe7d619f7a9E>:
    68d0:	48 83 ec 58          	sub    $0x58,%rsp
    68d4:	48 89 7c 24 10       	mov    %rdi,0x10(%rsp)
    68d9:	48 8d 05 98 c8 03 00 	lea    0x3c898(%rip),%rax        # 43178 <str.5+0x3a8>
    68e0:	48 89 44 24 18       	mov    %rax,0x18(%rsp)
    68e5:	0f 10 06             	movups (%rsi),%xmm0
    68e8:	0f 10 4e 10          	movups 0x10(%rsi),%xmm1
    68ec:	0f 10 56 20          	movups 0x20(%rsi),%xmm2
    68f0:	0f 29 54 24 40       	movaps %xmm2,0x40(%rsp)
    68f5:	0f 29 4c 24 30       	movaps %xmm1,0x30(%rsp)
    68fa:	0f 29 44 24 20       	movaps %xmm0,0x20(%rsp)
    68ff:	48 8d 05 ba a2 04 00 	lea    0x4a2ba(%rip),%rax        # 50bc0 <anon.1e772d87cb7ab8eb3bdc2c5d344d7c2b.0.llvm.13921790192248287823+0xad8>
    6906:	48 89 04 24          	mov    %rax,(%rsp)
    690a:	48 8d 15 bf 9a 04 00 	lea    0x49abf(%rip),%rdx        # 503d0 <anon.1e772d87cb7ab8eb3bdc2c5d344d7c2b.0.llvm.13921790192248287823+0x2e8>
    6911:	48 8d 74 24 10       	lea    0x10(%rsp),%rsi
    6916:	48 8d 4c 24 18       	lea    0x18(%rsp),%rcx
    691b:	4c 8d 4c 24 20       	lea    0x20(%rsp),%r9
    6920:	31 ff                	xor    %edi,%edi
    6922:	49 89 d0             	mov    %rdx,%r8
    6925:	ff 15 95 c6 04 00    	call   *0x4c695(%rip)        # 52fc0 <_GLOBAL_OFFSET_TABLE_+0x6c8>
    692b:	0f 0b                	ud2
    692d:	0f 1f 00             	nopl   (%rax)

0000000000006930 <_ZN5alloc7raw_vec19RawVec$LT$T$C$A$GT$7reserve21do_reserve_and_handle17h5e2f3d18f90b7436E>:
    6930:	41 56                	push   %r14
    6932:	53                   	push   %rbx
    6933:	48 83 ec 38          	sub    $0x38,%rsp
    6937:	48 ff c6             	inc    %rsi
    693a:	0f 84 ac 00 00 00    	je     69ec <_ZN5alloc7raw_vec19RawVec$LT$T$C$A$GT$7reserve21do_reserve_and_handle17h5e2f3d18f90b7436E+0xbc>
    6940:	49 89 fe             	mov    %rdi,%r14
    6943:	48 8b 47 08          	mov    0x8(%rdi),%rax
    6947:	48 8d 0c 00          	lea    (%rax,%rax,1),%rcx
    694b:	48 39 f1             	cmp    %rsi,%rcx
    694e:	48 0f 47 f1          	cmova  %rcx,%rsi
    6952:	48 83 fe 05          	cmp    $0x5,%rsi
    6956:	bb 04 00 00 00       	mov    $0x4,%ebx
    695b:	48 0f 43 de          	cmovae %rsi,%rbx
    695f:	31 d2                	xor    %edx,%edx
    6961:	48 89 d9             	mov    %rbx,%rcx
    6964:	48 c1 e9 37          	shr    $0x37,%rcx
    6968:	0f 94 c2             	sete   %dl
    696b:	48 89 de             	mov    %rbx,%rsi
    696e:	48 c1 e6 08          	shl    $0x8,%rsi
    6972:	48 c1 e2 03          	shl    $0x3,%rdx
    6976:	48 85 c0             	test   %rax,%rax
    6979:	74 1c                	je     6997 <_ZN5alloc7raw_vec19RawVec$LT$T$C$A$GT$7reserve21do_reserve_and_handle17h5e2f3d18f90b7436E+0x67>
    697b:	49 8b 0e             	mov    (%r14),%rcx
    697e:	48 c1 e0 08          	shl    $0x8,%rax
    6982:	48 89 4c 24 08       	mov    %rcx,0x8(%rsp)
    6987:	48 89 44 24 10       	mov    %rax,0x10(%rsp)
    698c:	48 c7 44 24 18 08 00 	movq   $0x8,0x18(%rsp)
    6993:	00 00 
    6995:	eb 09                	jmp    69a0 <_ZN5alloc7raw_vec19RawVec$LT$T$C$A$GT$7reserve21do_reserve_and_handle17h5e2f3d18f90b7436E+0x70>
    6997:	48 c7 44 24 18 00 00 	movq   $0x0,0x18(%rsp)
    699e:	00 00 
    69a0:	48 8d 7c 24 20       	lea    0x20(%rsp),%rdi
    69a5:	48 8d 4c 24 08       	lea    0x8(%rsp),%rcx
    69aa:	e8 41 65 00 00       	call   cef0 <_ZN5alloc7raw_vec11finish_grow17h0b3accfa77ce628dE>
    69af:	48 83 7c 24 20 00    	cmpq   $0x0,0x20(%rsp)
    69b5:	48 8b 7c 24 28       	mov    0x28(%rsp),%rdi
    69ba:	74 1c                	je     69d8 <_ZN5alloc7raw_vec19RawVec$LT$T$C$A$GT$7reserve21do_reserve_and_handle17h5e2f3d18f90b7436E+0xa8>
    69bc:	48 8b 74 24 30       	mov    0x30(%rsp),%rsi
    69c1:	48 b8 01 00 00 00 00 	movabs $0x8000000000000001,%rax
    69c8:	00 00 80 
    69cb:	48 39 c6             	cmp    %rax,%rsi
    69ce:	75 17                	jne    69e7 <_ZN5alloc7raw_vec19RawVec$LT$T$C$A$GT$7reserve21do_reserve_and_handle17h5e2f3d18f90b7436E+0xb7>
    69d0:	48 83 c4 38          	add    $0x38,%rsp
    69d4:	5b                   	pop    %rbx
    69d5:	41 5e                	pop    %r14
    69d7:	c3                   	ret
    69d8:	49 89 3e             	mov    %rdi,(%r14)
    69db:	49 89 5e 08          	mov    %rbx,0x8(%r14)
    69df:	48 83 c4 38          	add    $0x38,%rsp
    69e3:	5b                   	pop    %rbx
    69e4:	41 5e                	pop    %r14
    69e6:	c3                   	ret
    69e7:	48 85 f6             	test   %rsi,%rsi
    69ea:	75 08                	jne    69f4 <_ZN5alloc7raw_vec19RawVec$LT$T$C$A$GT$7reserve21do_reserve_and_handle17h5e2f3d18f90b7436E+0xc4>
    69ec:	ff 15 5e bf 04 00    	call   *0x4bf5e(%rip)        # 52950 <_GLOBAL_OFFSET_TABLE_+0x58>
    69f2:	0f 0b                	ud2
    69f4:	ff 15 f6 c3 04 00    	call   *0x4c3f6(%rip)        # 52df0 <_GLOBAL_OFFSET_TABLE_+0x4f8>
    69fa:	0f 0b                	ud2
    69fc:	0f 1f 40 00          	nopl   0x0(%rax)

0000000000006a00 <_ZN5alloc7raw_vec19RawVec$LT$T$C$A$GT$7reserve21do_reserve_and_handle17h9dacc617c9dfceacE>:
    6a00:	41 56                	push   %r14
    6a02:	53                   	push   %rbx
    6a03:	48 83 ec 38          	sub    $0x38,%rsp
    6a07:	48 01 d6             	add    %rdx,%rsi
    6a0a:	0f 82 bb 00 00 00    	jb     6acb <_ZN5alloc7raw_vec19RawVec$LT$T$C$A$GT$7reserve21do_reserve_and_handle17h9dacc617c9dfceacE+0xcb>
    6a10:	49 89 fe             	mov    %rdi,%r14
    6a13:	48 8b 47 08          	mov    0x8(%rdi),%rax
    6a17:	48 8d 0c 00          	lea    (%rax,%rax,1),%rcx
    6a1b:	48 39 f1             	cmp    %rsi,%rcx
    6a1e:	48 0f 47 f1          	cmova  %rcx,%rsi
    6a22:	48 83 fe 05          	cmp    $0x5,%rsi
    6a26:	bb 04 00 00 00       	mov    $0x4,%ebx
    6a2b:	48 0f 43 de          	cmovae %rsi,%rbx
    6a2f:	48 b9 55 55 55 55 55 	movabs $0x555555555555555,%rcx
    6a36:	55 55 05 
    6a39:	31 d2                	xor    %edx,%edx
    6a3b:	48 39 cb             	cmp    %rcx,%rbx
    6a3e:	0f 96 c2             	setbe  %dl
    6a41:	48 8d 0c dd 00 00 00 	lea    0x0(,%rbx,8),%rcx
    6a48:	00 
    6a49:	48 8d 34 49          	lea    (%rcx,%rcx,2),%rsi
    6a4d:	48 c1 e2 03          	shl    $0x3,%rdx
    6a51:	48 85 c0             	test   %rax,%rax
    6a54:	74 20                	je     6a76 <_ZN5alloc7raw_vec19RawVec$LT$T$C$A$GT$7reserve21do_reserve_and_handle17h9dacc617c9dfceacE+0x76>
    6a56:	49 8b 0e             	mov    (%r14),%rcx
    6a59:	48 c1 e0 03          	shl    $0x3,%rax
    6a5d:	48 8d 04 40          	lea    (%rax,%rax,2),%rax
    6a61:	48 89 4c 24 08       	mov    %rcx,0x8(%rsp)
    6a66:	48 89 44 24 10       	mov    %rax,0x10(%rsp)
    6a6b:	48 c7 44 24 18 08 00 	movq   $0x8,0x18(%rsp)
    6a72:	00 00 
    6a74:	eb 09                	jmp    6a7f <_ZN5alloc7raw_vec19RawVec$LT$T$C$A$GT$7reserve21do_reserve_and_handle17h9dacc617c9dfceacE+0x7f>
    6a76:	48 c7 44 24 18 00 00 	movq   $0x0,0x18(%rsp)
    6a7d:	00 00 
    6a7f:	48 8d 7c 24 20       	lea    0x20(%rsp),%rdi
    6a84:	48 8d 4c 24 08       	lea    0x8(%rsp),%rcx
    6a89:	e8 62 64 00 00       	call   cef0 <_ZN5alloc7raw_vec11finish_grow17h0b3accfa77ce628dE>
    6a8e:	48 83 7c 24 20 00    	cmpq   $0x0,0x20(%rsp)
    6a94:	48 8b 7c 24 28       	mov    0x28(%rsp),%rdi
    6a99:	74 1c                	je     6ab7 <_ZN5alloc7raw_vec19RawVec$LT$T$C$A$GT$7reserve21do_reserve_and_handle17h9dacc617c9dfceacE+0xb7>
    6a9b:	48 8b 74 24 30       	mov    0x30(%rsp),%rsi
    6aa0:	48 b8 01 00 00 00 00 	movabs $0x8000000000000001,%rax
    6aa7:	00 00 80 
    6aaa:	48 39 c6             	cmp    %rax,%rsi
    6aad:	75 17                	jne    6ac6 <_ZN5alloc7raw_vec19RawVec$LT$T$C$A$GT$7reserve21do_reserve_and_handle17h9dacc617c9dfceacE+0xc6>
    6aaf:	48 83 c4 38          	add    $0x38,%rsp
    6ab3:	5b                   	pop    %rbx
    6ab4:	41 5e                	pop    %r14
    6ab6:	c3                   	ret
    6ab7:	49 89 3e             	mov    %rdi,(%r14)
    6aba:	49 89 5e 08          	mov    %rbx,0x8(%r14)
    6abe:	48 83 c4 38          	add    $0x38,%rsp
    6ac2:	5b                   	pop    %rbx
    6ac3:	41 5e                	pop    %r14
    6ac5:	c3                   	ret
    6ac6:	48 85 f6             	test   %rsi,%rsi
    6ac9:	75 08                	jne    6ad3 <_ZN5alloc7raw_vec19RawVec$LT$T$C$A$GT$7reserve21do_reserve_and_handle17h9dacc617c9dfceacE+0xd3>
    6acb:	ff 15 7f be 04 00    	call   *0x4be7f(%rip)        # 52950 <_GLOBAL_OFFSET_TABLE_+0x58>
    6ad1:	0f 0b                	ud2
    6ad3:	ff 15 17 c3 04 00    	call   *0x4c317(%rip)        # 52df0 <_GLOBAL_OFFSET_TABLE_+0x4f8>
    6ad9:	0f 0b                	ud2
    6adb:	0f 1f 44 00 00       	nopl   0x0(%rax,%rax,1)

0000000000006ae0 <_ZN5alloc7raw_vec19RawVec$LT$T$C$A$GT$7reserve21do_reserve_and_handle17he9f1b2c48e261105E>:
    6ae0:	41 56                	push   %r14
    6ae2:	53                   	push   %rbx
    6ae3:	48 83 ec 38          	sub    $0x38,%rsp
    6ae7:	48 01 d6             	add    %rdx,%rsi
    6aea:	0f 82 a4 00 00 00    	jb     6b94 <_ZN5alloc7raw_vec19RawVec$LT$T$C$A$GT$7reserve21do_reserve_and_handle17he9f1b2c48e261105E+0xb4>
    6af0:	49 89 fe             	mov    %rdi,%r14
    6af3:	48 8b 47 08          	mov    0x8(%rdi),%rax
    6af7:	48 8d 0c 00          	lea    (%rax,%rax,1),%rcx
    6afb:	48 39 f1             	cmp    %rsi,%rcx
    6afe:	48 0f 47 f1          	cmova  %rcx,%rsi
    6b02:	48 83 fe 09          	cmp    $0x9,%rsi
    6b06:	bb 08 00 00 00       	mov    $0x8,%ebx
    6b0b:	48 0f 43 de          	cmovae %rsi,%rbx
    6b0f:	48 89 da             	mov    %rbx,%rdx
    6b12:	48 f7 d2             	not    %rdx
    6b15:	48 c1 ea 3f          	shr    $0x3f,%rdx
    6b19:	48 85 c0             	test   %rax,%rax
    6b1c:	74 1e                	je     6b3c <_ZN5alloc7raw_vec19RawVec$LT$T$C$A$GT$7reserve21do_reserve_and_handle17he9f1b2c48e261105E+0x5c>
    6b1e:	49 8b 0e             	mov    (%r14),%rcx
    6b21:	48 89 c6             	mov    %rax,%rsi
    6b24:	48 f7 d6             	not    %rsi
    6b27:	48 c1 ee 3f          	shr    $0x3f,%rsi
    6b2b:	48 89 4c 24 08       	mov    %rcx,0x8(%rsp)
    6b30:	48 89 44 24 10       	mov    %rax,0x10(%rsp)
    6b35:	48 89 74 24 18       	mov    %rsi,0x18(%rsp)
    6b3a:	eb 09                	jmp    6b45 <_ZN5alloc7raw_vec19RawVec$LT$T$C$A$GT$7reserve21do_reserve_and_handle17he9f1b2c48e261105E+0x65>
    6b3c:	48 c7 44 24 18 00 00 	movq   $0x0,0x18(%rsp)
    6b43:	00 00 
    6b45:	48 8d 7c 24 20       	lea    0x20(%rsp),%rdi
    6b4a:	48 8d 4c 24 08       	lea    0x8(%rsp),%rcx
    6b4f:	48 89 de             	mov    %rbx,%rsi
    6b52:	e8 99 63 00 00       	call   cef0 <_ZN5alloc7raw_vec11finish_grow17h0b3accfa77ce628dE>
    6b57:	48 83 7c 24 20 00    	cmpq   $0x0,0x20(%rsp)
    6b5d:	48 8b 7c 24 28       	mov    0x28(%rsp),%rdi
    6b62:	74 1c                	je     6b80 <_ZN5alloc7raw_vec19RawVec$LT$T$C$A$GT$7reserve21do_reserve_and_handle17he9f1b2c48e261105E+0xa0>
    6b64:	48 8b 74 24 30       	mov    0x30(%rsp),%rsi
    6b69:	48 b8 01 00 00 00 00 	movabs $0x8000000000000001,%rax
    6b70:	00 00 80 
    6b73:	48 39 c6             	cmp    %rax,%rsi
    6b76:	75 17                	jne    6b8f <_ZN5alloc7raw_vec19RawVec$LT$T$C$A$GT$7reserve21do_reserve_and_handle17he9f1b2c48e261105E+0xaf>
    6b78:	48 83 c4 38          	add    $0x38,%rsp
    6b7c:	5b                   	pop    %rbx
    6b7d:	41 5e                	pop    %r14
    6b7f:	c3                   	ret
    6b80:	49 89 3e             	mov    %rdi,(%r14)
    6b83:	49 89 5e 08          	mov    %rbx,0x8(%r14)
    6b87:	48 83 c4 38          	add    $0x38,%rsp
    6b8b:	5b                   	pop    %rbx
    6b8c:	41 5e                	pop    %r14
    6b8e:	c3                   	ret
    6b8f:	48 85 f6             	test   %rsi,%rsi
    6b92:	75 08                	jne    6b9c <_ZN5alloc7raw_vec19RawVec$LT$T$C$A$GT$7reserve21do_reserve_and_handle17he9f1b2c48e261105E+0xbc>
    6b94:	ff 15 b6 bd 04 00    	call   *0x4bdb6(%rip)        # 52950 <_GLOBAL_OFFSET_TABLE_+0x58>
    6b9a:	0f 0b                	ud2
    6b9c:	ff 15 4e c2 04 00    	call   *0x4c24e(%rip)        # 52df0 <_GLOBAL_OFFSET_TABLE_+0x4f8>
    6ba2:	0f 0b                	ud2
    6ba4:	66 2e 0f 1f 84 00 00 	cs nopw 0x0(%rax,%rax,1)
    6bab:	00 00 00 
    6bae:	66 90                	xchg   %ax,%ax

0000000000006bb0 <_ZN3std6thread8ThreadId3new9exhausted17h8b15b09161259129E>:
    6bb0:	48 83 ec 38          	sub    $0x38,%rsp
    6bb4:	48 8d 05 1d 9b 04 00 	lea    0x49b1d(%rip),%rax        # 506d8 <anon.1e772d87cb7ab8eb3bdc2c5d344d7c2b.0.llvm.13921790192248287823+0x5f0>
    6bbb:	48 89 44 24 08       	mov    %rax,0x8(%rsp)
    6bc0:	48 c7 44 24 10 01 00 	movq   $0x1,0x10(%rsp)
    6bc7:	00 00 
    6bc9:	48 c7 44 24 18 00 00 	movq   $0x0,0x18(%rsp)
    6bd0:	00 00 
    6bd2:	48 8d 05 87 be 03 00 	lea    0x3be87(%rip),%rax        # 42a60 <_fini+0x3e38>
    6bd9:	48 89 44 24 28       	mov    %rax,0x28(%rsp)
    6bde:	48 c7 44 24 30 00 00 	movq   $0x0,0x30(%rsp)
    6be5:	00 00 
    6be7:	48 8d 35 fa 9a 04 00 	lea    0x49afa(%rip),%rsi        # 506e8 <anon.1e772d87cb7ab8eb3bdc2c5d344d7c2b.0.llvm.13921790192248287823+0x600>
    6bee:	48 8d 7c 24 08       	lea    0x8(%rsp),%rdi
    6bf3:	ff 15 67 c0 04 00    	call   *0x4c067(%rip)        # 52c60 <_GLOBAL_OFFSET_TABLE_+0x368>
    6bf9:	0f 0b                	ud2
    6bfb:	0f 1f 44 00 00       	nopl   0x0(%rax,%rax,1)

0000000000006c00 <_ZN3std2io8buffered9bufwriter18BufWriter$LT$W$GT$14write_all_cold17he34cf7d50939c88aE>:
    6c00:	55                   	push   %rbp
    6c01:	41 57                	push   %r15
    6c03:	41 56                	push   %r14
    6c05:	41 55                	push   %r13
    6c07:	41 54                	push   %r12
    6c09:	53                   	push   %rbx
    6c0a:	50                   	push   %rax
    6c0b:	49 89 d5             	mov    %rdx,%r13
    6c0e:	49 89 f7             	mov    %rsi,%r15
    6c11:	49 89 fe             	mov    %rdi,%r14
    6c14:	48 8b 47 08          	mov    0x8(%rdi),%rax
    6c18:	48 89 c1             	mov    %rax,%rcx
    6c1b:	48 2b 4f 10          	sub    0x10(%rdi),%rcx
    6c1f:	48 39 d1             	cmp    %rdx,%rcx
    6c22:	73 15                	jae    6c39 <_ZN3std2io8buffered9bufwriter18BufWriter$LT$W$GT$14write_all_cold17he34cf7d50939c88aE+0x39>
    6c24:	4c 89 f7             	mov    %r14,%rdi
    6c27:	e8 04 5c 01 00       	call   1c830 <_ZN3std2io8buffered9bufwriter18BufWriter$LT$W$GT$9flush_buf17ha33ed8f7665890f9E>
    6c2c:	48 85 c0             	test   %rax,%rax
    6c2f:	0f 85 a4 00 00 00    	jne    6cd9 <_ZN3std2io8buffered9bufwriter18BufWriter$LT$W$GT$14write_all_cold17he34cf7d50939c88aE+0xd9>
    6c35:	49 8b 46 08          	mov    0x8(%r14),%rax
    6c39:	4c 39 e8             	cmp    %r13,%rax
    6c3c:	76 21                	jbe    6c5f <_ZN3std2io8buffered9bufwriter18BufWriter$LT$W$GT$14write_all_cold17he34cf7d50939c88aE+0x5f>
    6c3e:	49 8b 5e 10          	mov    0x10(%r14),%rbx
    6c42:	49 8b 3e             	mov    (%r14),%rdi
    6c45:	48 01 df             	add    %rbx,%rdi
    6c48:	4c 89 fe             	mov    %r15,%rsi
    6c4b:	4c 89 ea             	mov    %r13,%rdx
    6c4e:	ff 15 a4 c0 04 00    	call   *0x4c0a4(%rip)        # 52cf8 <memcpy@GLIBC_2.14>
    6c54:	4c 01 eb             	add    %r13,%rbx
    6c57:	49 89 5e 10          	mov    %rbx,0x10(%r14)
    6c5b:	31 c0                	xor    %eax,%eax
    6c5d:	eb 7a                	jmp    6cd9 <_ZN3std2io8buffered9bufwriter18BufWriter$LT$W$GT$14write_all_cold17he34cf7d50939c88aE+0xd9>
    6c5f:	41 c6 46 18 01       	movb   $0x1,0x18(%r14)
    6c64:	4d 85 ed             	test   %r13,%r13
    6c67:	74 64                	je     6ccd <_ZN3std2io8buffered9bufwriter18BufWriter$LT$W$GT$14write_all_cold17he34cf7d50939c88aE+0xcd>
    6c69:	48 bd ff ff ff ff ff 	movabs $0x7fffffffffffffff,%rbp
    6c70:	ff ff 7f 
    6c73:	4c 8b 25 3e be 04 00 	mov    0x4be3e(%rip),%r12        # 52ab8 <write@GLIBC_2.2.5>
    6c7a:	eb 1d                	jmp    6c99 <_ZN3std2io8buffered9bufwriter18BufWriter$LT$W$GT$14write_all_cold17he34cf7d50939c88aE+0x99>
    6c7c:	0f 1f 40 00          	nopl   0x0(%rax)
    6c80:	ff 15 12 bd 04 00    	call   *0x4bd12(%rip)        # 52998 <__errno_location@GLIBC_2.2.5>
    6c86:	8b 18                	mov    (%rax),%ebx
    6c88:	89 df                	mov    %ebx,%edi
    6c8a:	ff 15 e8 bf 04 00    	call   *0x4bfe8(%rip)        # 52c78 <_GLOBAL_OFFSET_TABLE_+0x380>
    6c90:	3c 23                	cmp    $0x23,%al
    6c92:	75 5d                	jne    6cf1 <_ZN3std2io8buffered9bufwriter18BufWriter$LT$W$GT$14write_all_cold17he34cf7d50939c88aE+0xf1>
    6c94:	4d 85 ed             	test   %r13,%r13
    6c97:	74 34                	je     6ccd <_ZN3std2io8buffered9bufwriter18BufWriter$LT$W$GT$14write_all_cold17he34cf7d50939c88aE+0xcd>
    6c99:	4c 89 ea             	mov    %r13,%rdx
    6c9c:	49 39 ed             	cmp    %rbp,%r13
    6c9f:	72 03                	jb     6ca4 <_ZN3std2io8buffered9bufwriter18BufWriter$LT$W$GT$14write_all_cold17he34cf7d50939c88aE+0xa4>
    6ca1:	48 89 ea             	mov    %rbp,%rdx
    6ca4:	bf 01 00 00 00       	mov    $0x1,%edi
    6ca9:	4c 89 fe             	mov    %r15,%rsi
    6cac:	41 ff d4             	call   *%r12
    6caf:	48 83 f8 ff          	cmp    $0xffffffffffffffff,%rax
    6cb3:	74 cb                	je     6c80 <_ZN3std2io8buffered9bufwriter18BufWriter$LT$W$GT$14write_all_cold17he34cf7d50939c88aE+0x80>
    6cb5:	48 85 c0             	test   %rax,%rax
    6cb8:	74 2e                	je     6ce8 <_ZN3std2io8buffered9bufwriter18BufWriter$LT$W$GT$14write_all_cold17he34cf7d50939c88aE+0xe8>
    6cba:	4c 89 e9             	mov    %r13,%rcx
    6cbd:	48 29 c1             	sub    %rax,%rcx
    6cc0:	72 3c                	jb     6cfe <_ZN3std2io8buffered9bufwriter18BufWriter$LT$W$GT$14write_all_cold17he34cf7d50939c88aE+0xfe>
    6cc2:	49 01 c7             	add    %rax,%r15
    6cc5:	49 89 cd             	mov    %rcx,%r13
    6cc8:	4d 85 ed             	test   %r13,%r13
    6ccb:	75 cc                	jne    6c99 <_ZN3std2io8buffered9bufwriter18BufWriter$LT$W$GT$14write_all_cold17he34cf7d50939c88aE+0x99>
    6ccd:	31 ff                	xor    %edi,%edi
    6ccf:	e8 0c 66 01 00       	call   1d2e0 <_ZN3std2io5stdio12handle_ebadf17h7b40c584982b0e21E>
    6cd4:	41 c6 46 18 00       	movb   $0x0,0x18(%r14)
    6cd9:	48 83 c4 08          	add    $0x8,%rsp
    6cdd:	5b                   	pop    %rbx
    6cde:	41 5c                	pop    %r12
    6ce0:	41 5d                	pop    %r13
    6ce2:	41 5e                	pop    %r14
    6ce4:	41 5f                	pop    %r15
    6ce6:	5d                   	pop    %rbp
    6ce7:	c3                   	ret
    6ce8:	48 8d 3d f1 9b 04 00 	lea    0x49bf1(%rip),%rdi        # 508e0 <anon.1e772d87cb7ab8eb3bdc2c5d344d7c2b.0.llvm.13921790192248287823+0x7f8>
    6cef:	eb de                	jmp    6ccf <_ZN3std2io8buffered9bufwriter18BufWriter$LT$W$GT$14write_all_cold17he34cf7d50939c88aE+0xcf>
    6cf1:	48 c1 e3 20          	shl    $0x20,%rbx
    6cf5:	48 83 cb 02          	or     $0x2,%rbx
    6cf9:	48 89 df             	mov    %rbx,%rdi
    6cfc:	eb d1                	jmp    6ccf <_ZN3std2io8buffered9bufwriter18BufWriter$LT$W$GT$14write_all_cold17he34cf7d50939c88aE+0xcf>
    6cfe:	48 8d 15 c3 9b 04 00 	lea    0x49bc3(%rip),%rdx        # 508c8 <anon.1e772d87cb7ab8eb3bdc2c5d344d7c2b.0.llvm.13921790192248287823+0x7e0>
    6d05:	48 89 c7             	mov    %rax,%rdi
    6d08:	4c 89 ee             	mov    %r13,%rsi
    6d0b:	ff 15 ef c1 04 00    	call   *0x4c1ef(%rip)        # 52f00 <_GLOBAL_OFFSET_TABLE_+0x608>
    6d11:	0f 0b                	ud2
    6d13:	66 2e 0f 1f 84 00 00 	cs nopw 0x0(%rax,%rax,1)
    6d1a:	00 00 00 
    6d1d:	0f 1f 00             	nopl   (%rax)

0000000000006d20 <_ZN3std7process5abort17h5c32933d4ca74548E>:
    6d20:	50                   	push   %rax
    6d21:	ff 15 09 be 04 00    	call   *0x4be09(%rip)        # 52b30 <_GLOBAL_OFFSET_TABLE_+0x238>
    6d27:	0f 0b                	ud2
    6d29:	0f 1f 80 00 00 00 00 	nopl   0x0(%rax)

0000000000006d30 <_ZN3std4sync4once4Once10call_inner17he7c95df8c763a30dE>:
    6d30:	55                   	push   %rbp
    6d31:	41 57                	push   %r15
    6d33:	41 56                	push   %r14
    6d35:	41 55                	push   %r13
    6d37:	41 54                	push   %r12
    6d39:	53                   	push   %rbx
    6d3a:	48 81 ec 88 00 00 00 	sub    $0x88,%rsp
    6d41:	4c 89 44 24 70       	mov    %r8,0x70(%rsp)
    6d46:	48 89 8c 24 80 00 00 	mov    %rcx,0x80(%rsp)
    6d4d:	00 
    6d4e:	48 89 54 24 78       	mov    %rdx,0x78(%rsp)
    6d53:	89 74 24 3c          	mov    %esi,0x3c(%rsp)
    6d57:	48 89 fb             	mov    %rdi,%rbx
    6d5a:	48 8b 07             	mov    (%rdi),%rax
    6d5d:	4c 8d 64 24 48       	lea    0x48(%rsp),%r12
    6d62:	4c 8b 2d 57 bf 04 00 	mov    0x4bf57(%rip),%r13        # 52cc0 <syscall@GLIBC_2.2.5>
    6d69:	4c 8b 35 28 bc 04 00 	mov    0x4bc28(%rip),%r14        # 52998 <__errno_location@GLIBC_2.2.5>
    6d70:	eb 2c                	jmp    6d9e <_ZN3std4sync4once4Once10call_inner17he7c95df8c763a30dE+0x6e>
    6d72:	66 66 66 66 66 2e 0f 	data16 data16 data16 data16 cs nopw 0x0(%rax,%rax,1)
    6d79:	1f 84 00 00 00 00 00 
    6d80:	80 7c 24 3c 00       	cmpb   $0x0,0x3c(%rsp)
    6d85:	0f 84 09 05 00 00    	je     7294 <_ZN3std4sync4once4Once10call_inner17he7c95df8c763a30dE+0x564>
    6d8b:	4c 89 f8             	mov    %r15,%rax
    6d8e:	b9 02 00 00 00       	mov    $0x2,%ecx
    6d93:	f0 48 0f b1 0b       	lock cmpxchg %rcx,(%rbx)
    6d98:	0f 84 da 03 00 00    	je     7178 <_ZN3std4sync4once4Once10call_inner17he7c95df8c763a30dE+0x448>
    6d9e:	49 89 c7             	mov    %rax,%r15
    6da1:	48 85 c0             	test   %rax,%rax
    6da4:	74 e5                	je     6d8b <_ZN3std4sync4once4Once10call_inner17he7c95df8c763a30dE+0x5b>
    6da6:	49 83 ff 01          	cmp    $0x1,%r15
    6daa:	74 d4                	je     6d80 <_ZN3std4sync4once4Once10call_inner17he7c95df8c763a30dE+0x50>
    6dac:	49 83 ff 03          	cmp    $0x3,%r15
    6db0:	0f 84 0c 04 00 00    	je     71c2 <_ZN3std4sync4once4Once10call_inner17he7c95df8c763a30dE+0x492>
    6db6:	44 89 f8             	mov    %r15d,%eax
    6db9:	83 e0 03             	and    $0x3,%eax
    6dbc:	83 f8 02             	cmp    $0x2,%eax
    6dbf:	74 1e                	je     6ddf <_ZN3std4sync4once4Once10call_inner17he7c95df8c763a30dE+0xaf>
    6dc1:	e9 13 05 00 00       	jmp    72d9 <_ZN3std4sync4once4Once10call_inner17he7c95df8c763a30dE+0x5a9>
    6dc6:	66 2e 0f 1f 84 00 00 	cs nopw 0x0(%rax,%rax,1)
    6dcd:	00 00 00 
    6dd0:	44 89 f8             	mov    %r15d,%eax
    6dd3:	83 e0 03             	and    $0x3,%eax
    6dd6:	83 f8 02             	cmp    $0x2,%eax
    6dd9:	0f 85 91 03 00 00    	jne    7170 <_ZN3std4sync4once4Once10call_inner17he7c95df8c763a30dE+0x440>
    6ddf:	66 66 66 64 48 8b 04 	data16 data16 data16 mov %fs:0x0,%rax
    6de6:	25 00 00 00 00 
    6deb:	48 89 c5             	mov    %rax,%rbp
    6dee:	0f b6 80 f1 ff ff ff 	movzbl -0xf(%rax),%eax
    6df5:	83 f8 01             	cmp    $0x1,%eax
    6df8:	74 26                	je     6e20 <_ZN3std4sync4once4Once10call_inner17he7c95df8c763a30dE+0xf0>
    6dfa:	85 c0                	test   %eax,%eax
    6dfc:	0f 85 e6 03 00 00    	jne    71e8 <_ZN3std4sync4once4Once10call_inner17he7c95df8c763a30dE+0x4b8>
    6e02:	48 8d bd b0 ff ff ff 	lea    -0x50(%rbp),%rdi
    6e09:	48 8d 35 20 db 01 00 	lea    0x1db20(%rip),%rsi        # 24930 <_ZN3std10sys_common11thread_info11THREAD_INFO7__getit7destroy17hff765f4c7b521728E>
    6e10:	ff 15 9a be 04 00    	call   *0x4be9a(%rip)        # 52cb0 <_GLOBAL_OFFSET_TABLE_+0x3b8>
    6e16:	48 89 e8             	mov    %rbp,%rax
    6e19:	c6 85 f1 ff ff ff 01 	movb   $0x1,-0xf(%rbp)
    6e20:	48 89 e8             	mov    %rbp,%rax
    6e23:	48 83 bd b0 ff ff ff 	cmpq   $0x0,-0x50(%rbp)
    6e2a:	00 
    6e2b:	0f 85 d6 03 00 00    	jne    7207 <_ZN3std4sync4once4Once10call_inner17he7c95df8c763a30dE+0x4d7>
    6e31:	48 89 e8             	mov    %rbp,%rax
    6e34:	48 c7 85 b0 ff ff ff 	movq   $0xffffffffffffffff,-0x50(%rbp)
    6e3b:	ff ff ff ff 
    6e3f:	83 bd b8 ff ff ff 02 	cmpl   $0x2,-0x48(%rbp)
    6e46:	0f 85 94 00 00 00    	jne    6ee0 <_ZN3std4sync4once4Once10call_inner17he7c95df8c763a30dE+0x1b0>
    6e4c:	48 c7 44 24 40 00 00 	movq   $0x0,0x40(%rsp)
    6e53:	00 00 
    6e55:	bf 30 00 00 00       	mov    $0x30,%edi
    6e5a:	be 08 00 00 00       	mov    $0x8,%esi
    6e5f:	ff 15 13 bd 04 00    	call   *0x4bd13(%rip)        # 52b78 <_GLOBAL_OFFSET_TABLE_+0x280>
    6e65:	48 85 c0             	test   %rax,%rax
    6e68:	0f 84 db 03 00 00    	je     7249 <_ZN3std4sync4once4Once10call_inner17he7c95df8c763a30dE+0x519>
    6e6e:	48 89 c1             	mov    %rax,%rcx
    6e71:	0f 28 05 e8 81 03 00 	movaps 0x381e8(%rip),%xmm0        # 3f060 <_fini+0x438>
    6e78:	0f 11 00             	movups %xmm0,(%rax)
    6e7b:	48 89 44 24 30       	mov    %rax,0x30(%rsp)
    6e80:	48 c7 40 10 00 00 00 	movq   $0x0,0x10(%rax)
    6e87:	00 
    6e88:	48 8b 05 31 c2 04 00 	mov    0x4c231(%rip),%rax        # 530c0 <_ZN3std6thread8ThreadId3new7COUNTER17h3a05da468aebc0a6E>
    6e8f:	90                   	nop
    6e90:	48 89 c2             	mov    %rax,%rdx
    6e93:	48 ff c2             	inc    %rdx
    6e96:	0f 84 38 03 00 00    	je     71d4 <_ZN3std4sync4once4Once10call_inner17he7c95df8c763a30dE+0x4a4>
    6e9c:	f0 48 0f b1 15 1b c2 	lock cmpxchg %rdx,0x4c21b(%rip)        # 530c0 <_ZN3std6thread8ThreadId3new7COUNTER17h3a05da468aebc0a6E>
    6ea3:	04 00 
    6ea5:	75 e9                	jne    6e90 <_ZN3std4sync4once4Once10call_inner17he7c95df8c763a30dE+0x160>
    6ea7:	48 89 51 20          	mov    %rdx,0x20(%rcx)
    6eab:	c7 41 28 00 00 00 00 	movl   $0x0,0x28(%rcx)
    6eb2:	0f 10 44 24 40       	movups 0x40(%rsp),%xmm0
    6eb7:	48 89 e8             	mov    %rbp,%rax
    6eba:	0f 11 85 c0 ff ff ff 	movups %xmm0,-0x40(%rbp)
    6ec1:	48 c7 85 b8 ff ff ff 	movq   $0x0,-0x48(%rbp)
    6ec8:	00 00 00 00 
    6ecc:	48 89 8d d0 ff ff ff 	mov    %rcx,-0x30(%rbp)
    6ed3:	eb 15                	jmp    6eea <_ZN3std4sync4once4Once10call_inner17he7c95df8c763a30dE+0x1ba>
    6ed5:	66 66 2e 0f 1f 84 00 	data16 cs nopw 0x0(%rax,%rax,1)
    6edc:	00 00 00 00 
    6ee0:	48 89 e8             	mov    %rbp,%rax
    6ee3:	48 8b 8d d0 ff ff ff 	mov    -0x30(%rbp),%rcx
    6eea:	f0 48 ff 01          	lock incq (%rcx)
    6eee:	0f 8e 0f 03 00 00    	jle    7203 <_ZN3std4sync4once4Once10call_inner17he7c95df8c763a30dE+0x4d3>
    6ef4:	48 89 e8             	mov    %rbp,%rax
    6ef7:	48 ff 85 b0 ff ff ff 	incq   -0x50(%rbp)
    6efe:	48 85 c9             	test   %rcx,%rcx
    6f01:	0f 84 e1 02 00 00    	je     71e8 <_ZN3std4sync4once4Once10call_inner17he7c95df8c763a30dE+0x4b8>
    6f07:	4c 89 f8             	mov    %r15,%rax
    6f0a:	48 83 e0 fc          	and    $0xfffffffffffffffc,%rax
    6f0e:	48 89 4c 24 18       	mov    %rcx,0x18(%rsp)
    6f13:	c6 44 24 28 00       	movb   $0x0,0x28(%rsp)
    6f18:	48 89 44 24 20       	mov    %rax,0x20(%rsp)
    6f1d:	4c 89 f8             	mov    %r15,%rax
    6f20:	48 8d 4c 24 1a       	lea    0x1a(%rsp),%rcx
    6f25:	f0 48 0f b1 0b       	lock cmpxchg %rcx,(%rbx)
    6f2a:	74 2a                	je     6f56 <_ZN3std4sync4once4Once10call_inner17he7c95df8c763a30dE+0x226>
    6f2c:	49 89 c7             	mov    %rax,%r15
    6f2f:	48 8b 44 24 18       	mov    0x18(%rsp),%rax
    6f34:	48 85 c0             	test   %rax,%rax
    6f37:	0f 84 93 fe ff ff    	je     6dd0 <_ZN3std4sync4once4Once10call_inner17he7c95df8c763a30dE+0xa0>
    6f3d:	f0 48 ff 08          	lock decq (%rax)
    6f41:	0f 85 89 fe ff ff    	jne    6dd0 <_ZN3std4sync4once4Once10call_inner17he7c95df8c763a30dE+0xa0>
    6f47:	48 8b 7c 24 18       	mov    0x18(%rsp),%rdi
    6f4c:	e8 cf 5e 00 00       	call   ce20 <_ZN5alloc4sync12Arc$LT$T$GT$9drop_slow17h9523aeb1e079b673E>
    6f51:	e9 7a fe ff ff       	jmp    6dd0 <_ZN3std4sync4once4Once10call_inner17he7c95df8c763a30dE+0xa0>
    6f56:	0f b6 44 24 28       	movzbl 0x28(%rsp),%eax
    6f5b:	84 c0                	test   %al,%al
    6f5d:	48 89 6c 24 10       	mov    %rbp,0x10(%rsp)
    6f62:	74 3d                	je     6fa1 <_ZN3std4sync4once4Once10call_inner17he7c95df8c763a30dE+0x271>
    6f64:	48 8b 44 24 18       	mov    0x18(%rsp),%rax
    6f69:	48 85 c0             	test   %rax,%rax
    6f6c:	0f 84 fe 01 00 00    	je     7170 <_ZN3std4sync4once4Once10call_inner17he7c95df8c763a30dE+0x440>
    6f72:	f0 48 ff 08          	lock decq (%rax)
    6f76:	0f 85 f4 01 00 00    	jne    7170 <_ZN3std4sync4once4Once10call_inner17he7c95df8c763a30dE+0x440>
    6f7c:	48 8b 7c 24 18       	mov    0x18(%rsp),%rdi
    6f81:	e8 9a 5e 00 00       	call   ce20 <_ZN5alloc4sync12Arc$LT$T$GT$9drop_slow17h9523aeb1e079b673E>
    6f86:	48 8b 03             	mov    (%rbx),%rax
    6f89:	e9 10 fe ff ff       	jmp    6d9e <_ZN3std4sync4once4Once10call_inner17he7c95df8c763a30dE+0x6e>
    6f8e:	66 90                	xchg   %ax,%ax
    6f90:	0f b6 44 24 28       	movzbl 0x28(%rsp),%eax
    6f95:	84 c0                	test   %al,%al
    6f97:	4c 89 fb             	mov    %r15,%rbx
    6f9a:	48 8b 6c 24 10       	mov    0x10(%rsp),%rbp
    6f9f:	75 c3                	jne    6f64 <_ZN3std4sync4once4Once10call_inner17he7c95df8c763a30dE+0x234>
    6fa1:	48 89 e8             	mov    %rbp,%rax
    6fa4:	0f b6 85 f1 ff ff ff 	movzbl -0xf(%rbp),%eax
    6fab:	83 f8 01             	cmp    $0x1,%eax
    6fae:	74 2b                	je     6fdb <_ZN3std4sync4once4Once10call_inner17he7c95df8c763a30dE+0x2ab>
    6fb0:	85 c0                	test   %eax,%eax
    6fb2:	0f 85 76 02 00 00    	jne    722e <_ZN3std4sync4once4Once10call_inner17he7c95df8c763a30dE+0x4fe>
    6fb8:	48 8b 6c 24 10       	mov    0x10(%rsp),%rbp
    6fbd:	48 8d bd b0 ff ff ff 	lea    -0x50(%rbp),%rdi
    6fc4:	48 8d 35 65 d9 01 00 	lea    0x1d965(%rip),%rsi        # 24930 <_ZN3std10sys_common11thread_info11THREAD_INFO7__getit7destroy17hff765f4c7b521728E>
    6fcb:	ff 15 df bc 04 00    	call   *0x4bcdf(%rip)        # 52cb0 <_GLOBAL_OFFSET_TABLE_+0x3b8>
    6fd1:	48 89 e8             	mov    %rbp,%rax
    6fd4:	c6 85 f1 ff ff ff 01 	movb   $0x1,-0xf(%rbp)
    6fdb:	48 89 e8             	mov    %rbp,%rax
    6fde:	48 83 bd b0 ff ff ff 	cmpq   $0x0,-0x50(%rbp)
    6fe5:	00 
    6fe6:	0f 85 6f 02 00 00    	jne    725b <_ZN3std4sync4once4Once10call_inner17he7c95df8c763a30dE+0x52b>
    6fec:	48 89 e8             	mov    %rbp,%rax
    6fef:	48 c7 85 b0 ff ff ff 	movq   $0xffffffffffffffff,-0x50(%rbp)
    6ff6:	ff ff ff ff 
    6ffa:	83 bd b8 ff ff ff 02 	cmpl   $0x2,-0x48(%rbp)
    7001:	0f 85 99 00 00 00    	jne    70a0 <_ZN3std4sync4once4Once10call_inner17he7c95df8c763a30dE+0x370>
    7007:	48 c7 44 24 40 00 00 	movq   $0x0,0x40(%rsp)
    700e:	00 00 
    7010:	bf 30 00 00 00       	mov    $0x30,%edi
    7015:	be 08 00 00 00       	mov    $0x8,%esi
    701a:	ff 15 58 bb 04 00    	call   *0x4bb58(%rip)        # 52b78 <_GLOBAL_OFFSET_TABLE_+0x280>
    7020:	48 85 c0             	test   %rax,%rax
    7023:	0f 84 59 02 00 00    	je     7282 <_ZN3std4sync4once4Once10call_inner17he7c95df8c763a30dE+0x552>
    7029:	48 89 c5             	mov    %rax,%rbp
    702c:	0f 28 05 2d 80 03 00 	movaps 0x3802d(%rip),%xmm0        # 3f060 <_fini+0x438>
    7033:	0f 11 00             	movups %xmm0,(%rax)
    7036:	48 89 44 24 30       	mov    %rax,0x30(%rsp)
    703b:	48 c7 40 10 00 00 00 	movq   $0x0,0x10(%rax)
    7042:	00 
    7043:	48 8b 05 76 c0 04 00 	mov    0x4c076(%rip),%rax        # 530c0 <_ZN3std6thread8ThreadId3new7COUNTER17h3a05da468aebc0a6E>
    704a:	66 0f 1f 44 00 00    	nopw   0x0(%rax,%rax,1)
    7050:	48 89 c1             	mov    %rax,%rcx
    7053:	48 ff c1             	inc    %rcx
    7056:	0f 84 82 01 00 00    	je     71de <_ZN3std4sync4once4Once10call_inner17he7c95df8c763a30dE+0x4ae>
    705c:	f0 48 0f b1 0d 5b c0 	lock cmpxchg %rcx,0x4c05b(%rip)        # 530c0 <_ZN3std6thread8ThreadId3new7COUNTER17h3a05da468aebc0a6E>
    7063:	04 00 
    7065:	75 e9                	jne    7050 <_ZN3std4sync4once4Once10call_inner17he7c95df8c763a30dE+0x320>
    7067:	48 89 4d 20          	mov    %rcx,0x20(%rbp)
    706b:	c7 45 28 00 00 00 00 	movl   $0x0,0x28(%rbp)
    7072:	0f 10 44 24 40       	movups 0x40(%rsp),%xmm0
    7077:	48 8b 44 24 10       	mov    0x10(%rsp),%rax
    707c:	0f 11 80 c0 ff ff ff 	movups %xmm0,-0x40(%rax)
    7083:	48 c7 80 b8 ff ff ff 	movq   $0x0,-0x48(%rax)
    708a:	00 00 00 00 
    708e:	48 89 a8 d0 ff ff ff 	mov    %rbp,-0x30(%rax)
    7095:	eb 13                	jmp    70aa <_ZN3std4sync4once4Once10call_inner17he7c95df8c763a30dE+0x37a>
    7097:	66 0f 1f 84 00 00 00 	nopw   0x0(%rax,%rax,1)
    709e:	00 00 
    70a0:	48 89 e8             	mov    %rbp,%rax
    70a3:	48 8b ad d0 ff ff ff 	mov    -0x30(%rbp),%rbp
    70aa:	f0 48 ff 45 00       	lock incq 0x0(%rbp)
    70af:	0f 8e 4e 01 00 00    	jle    7203 <_ZN3std4sync4once4Once10call_inner17he7c95df8c763a30dE+0x4d3>
    70b5:	48 8b 44 24 10       	mov    0x10(%rsp),%rax
    70ba:	48 ff 80 b0 ff ff ff 	incq   -0x50(%rax)
    70c1:	48 85 ed             	test   %rbp,%rbp
    70c4:	0f 84 64 01 00 00    	je     722e <_ZN3std4sync4once4Once10call_inner17he7c95df8c763a30dE+0x4fe>
    70ca:	49 89 df             	mov    %rbx,%r15
    70cd:	f0 ff 4d 28          	lock decl 0x28(%rbp)
    70d1:	75 1d                	jne    70f0 <_ZN3std4sync4once4Once10call_inner17he7c95df8c763a30dE+0x3c0>
    70d3:	f0 48 ff 4d 00       	lock decq 0x0(%rbp)
    70d8:	0f 85 b2 fe ff ff    	jne    6f90 <_ZN3std4sync4once4Once10call_inner17he7c95df8c763a30dE+0x260>
    70de:	48 89 ef             	mov    %rbp,%rdi
    70e1:	e8 3a 5d 00 00       	call   ce20 <_ZN5alloc4sync12Arc$LT$T$GT$9drop_slow17h9523aeb1e079b673E>
    70e6:	e9 a5 fe ff ff       	jmp    6f90 <_ZN3std4sync4once4Once10call_inner17he7c95df8c763a30dE+0x260>
    70eb:	0f 1f 44 00 00       	nopl   0x0(%rax,%rax,1)
    70f0:	48 8d 5d 28          	lea    0x28(%rbp),%rbx
    70f4:	eb 17                	jmp    710d <_ZN3std4sync4once4Once10call_inner17he7c95df8c763a30dE+0x3dd>
    70f6:	66 2e 0f 1f 84 00 00 	cs nopw 0x0(%rax,%rax,1)
    70fd:	00 00 00 
    7100:	b8 01 00 00 00       	mov    $0x1,%eax
    7105:	31 c9                	xor    %ecx,%ecx
    7107:	f0 0f b1 0b          	lock cmpxchg %ecx,(%rbx)
    710b:	74 c6                	je     70d3 <_ZN3std4sync4once4Once10call_inner17he7c95df8c763a30dE+0x3a3>
    710d:	48 c7 44 24 40 00 00 	movq   $0x0,0x40(%rsp)
    7114:	00 00 
    7116:	66 2e 0f 1f 84 00 00 	cs nopw 0x0(%rax,%rax,1)
    711d:	00 00 00 
    7120:	8b 03                	mov    (%rbx),%eax
    7122:	83 f8 ff             	cmp    $0xffffffff,%eax
    7125:	75 d9                	jne    7100 <_ZN3std4sync4once4Once10call_inner17he7c95df8c763a30dE+0x3d0>
    7127:	4c 8b 44 24 40       	mov    0x40(%rsp),%r8
    712c:	4d 85 c0             	test   %r8,%r8
    712f:	4d 0f 45 c4          	cmovne %r12,%r8
    7133:	c7 04 24 ff ff ff ff 	movl   $0xffffffff,(%rsp)
    713a:	bf ca 00 00 00       	mov    $0xca,%edi
    713f:	48 89 de             	mov    %rbx,%rsi
    7142:	ba 89 00 00 00       	mov    $0x89,%edx
    7147:	b9 ff ff ff ff       	mov    $0xffffffff,%ecx
    714c:	45 31 c9             	xor    %r9d,%r9d
    714f:	31 c0                	xor    %eax,%eax
    7151:	41 ff d5             	call   *%r13
    7154:	48 85 c0             	test   %rax,%rax
    7157:	79 a7                	jns    7100 <_ZN3std4sync4once4Once10call_inner17he7c95df8c763a30dE+0x3d0>
    7159:	41 ff d6             	call   *%r14
    715c:	83 38 04             	cmpl   $0x4,(%rax)
    715f:	74 bf                	je     7120 <_ZN3std4sync4once4Once10call_inner17he7c95df8c763a30dE+0x3f0>
    7161:	eb 9d                	jmp    7100 <_ZN3std4sync4once4Once10call_inner17he7c95df8c763a30dE+0x3d0>
    7163:	66 66 66 66 2e 0f 1f 	data16 data16 data16 cs nopw 0x0(%rax,%rax,1)
    716a:	84 00 00 00 00 00 
    7170:	48 8b 03             	mov    (%rbx),%rax
    7173:	e9 26 fc ff ff       	jmp    6d9e <_ZN3std4sync4once4Once10call_inner17he7c95df8c763a30dE+0x6e>
    7178:	48 89 5c 24 18       	mov    %rbx,0x18(%rsp)
    717d:	48 c7 44 24 20 01 00 	movq   $0x1,0x20(%rsp)
    7184:	00 00 
    7186:	49 83 ff 01          	cmp    $0x1,%r15
    718a:	0f 94 44 24 48       	sete   0x48(%rsp)
    718f:	48 c7 44 24 40 03 00 	movq   $0x3,0x40(%rsp)
    7196:	00 00 
    7198:	48 8d 74 24 40       	lea    0x40(%rsp),%rsi
    719d:	48 8b 7c 24 78       	mov    0x78(%rsp),%rdi
    71a2:	48 8b 84 24 80 00 00 	mov    0x80(%rsp),%rax
    71a9:	00 
    71aa:	ff 50 20             	call   *0x20(%rax)
    71ad:	48 8b 44 24 40       	mov    0x40(%rsp),%rax
    71b2:	48 89 44 24 20       	mov    %rax,0x20(%rsp)
    71b7:	48 8d 7c 24 18       	lea    0x18(%rsp),%rdi
    71bc:	ff 15 7e b7 04 00    	call   *0x4b77e(%rip)        # 52940 <_GLOBAL_OFFSET_TABLE_+0x48>
    71c2:	48 81 c4 88 00 00 00 	add    $0x88,%rsp
    71c9:	5b                   	pop    %rbx
    71ca:	41 5c                	pop    %r12
    71cc:	41 5d                	pop    %r13
    71ce:	41 5e                	pop    %r14
    71d0:	41 5f                	pop    %r15
    71d2:	5d                   	pop    %rbp
    71d3:	c3                   	ret
    71d4:	e8 d7 f9 ff ff       	call   6bb0 <_ZN3std6thread8ThreadId3new9exhausted17h8b15b09161259129E>
    71d9:	e9 b4 00 00 00       	jmp    7292 <_ZN3std4sync4once4Once10call_inner17he7c95df8c763a30dE+0x562>
    71de:	e8 cd f9 ff ff       	call   6bb0 <_ZN3std6thread8ThreadId3new9exhausted17h8b15b09161259129E>
    71e3:	e9 aa 00 00 00       	jmp    7292 <_ZN3std4sync4once4Once10call_inner17he7c95df8c763a30dE+0x562>
    71e8:	48 8d 3d 5d be 03 00 	lea    0x3be5d(%rip),%rdi        # 4304c <str.5+0x27c>
    71ef:	48 8d 15 ca 94 04 00 	lea    0x494ca(%rip),%rdx        # 506c0 <anon.1e772d87cb7ab8eb3bdc2c5d344d7c2b.0.llvm.13921790192248287823+0x5d8>
    71f6:	be 5e 00 00 00       	mov    $0x5e,%esi
    71fb:	ff 15 27 b9 04 00    	call   *0x4b927(%rip)        # 52b28 <_GLOBAL_OFFSET_TABLE_+0x230>
    7201:	0f 0b                	ud2
    7203:	0f 0b                	ud2
    7205:	0f 0b                	ud2
    7207:	48 8d 3d 82 a9 03 00 	lea    0x3a982(%rip),%rdi        # 41b90 <_fini+0x2f68>
    720e:	48 8d 0d 3b 91 04 00 	lea    0x4913b(%rip),%rcx        # 50350 <anon.1e772d87cb7ab8eb3bdc2c5d344d7c2b.0.llvm.13921790192248287823+0x268>
    7215:	4c 8d 05 54 9a 04 00 	lea    0x49a54(%rip),%r8        # 50c70 <anon.1e772d87cb7ab8eb3bdc2c5d344d7c2b.0.llvm.13921790192248287823+0xb88>
    721c:	48 8d 54 24 40       	lea    0x40(%rsp),%rdx
    7221:	be 10 00 00 00       	mov    $0x10,%esi
    7226:	ff 15 ec b7 04 00    	call   *0x4b7ec(%rip)        # 52a18 <_GLOBAL_OFFSET_TABLE_+0x120>
    722c:	0f 0b                	ud2
    722e:	48 8d 3d 17 be 03 00 	lea    0x3be17(%rip),%rdi        # 4304c <str.5+0x27c>
    7235:	48 8d 15 84 94 04 00 	lea    0x49484(%rip),%rdx        # 506c0 <anon.1e772d87cb7ab8eb3bdc2c5d344d7c2b.0.llvm.13921790192248287823+0x5d8>
    723c:	be 5e 00 00 00       	mov    $0x5e,%esi
    7241:	ff 15 e1 b8 04 00    	call   *0x4b8e1(%rip)        # 52b28 <_GLOBAL_OFFSET_TABLE_+0x230>
    7247:	eb 49                	jmp    7292 <_ZN3std4sync4once4Once10call_inner17he7c95df8c763a30dE+0x562>
    7249:	bf 30 00 00 00       	mov    $0x30,%edi
    724e:	be 08 00 00 00       	mov    $0x8,%esi
    7253:	ff 15 97 bb 04 00    	call   *0x4bb97(%rip)        # 52df0 <_GLOBAL_OFFSET_TABLE_+0x4f8>
    7259:	eb 37                	jmp    7292 <_ZN3std4sync4once4Once10call_inner17he7c95df8c763a30dE+0x562>
    725b:	48 8d 3d 2e a9 03 00 	lea    0x3a92e(%rip),%rdi        # 41b90 <_fini+0x2f68>
    7262:	48 8d 0d e7 90 04 00 	lea    0x490e7(%rip),%rcx        # 50350 <anon.1e772d87cb7ab8eb3bdc2c5d344d7c2b.0.llvm.13921790192248287823+0x268>
    7269:	4c 8d 05 00 9a 04 00 	lea    0x49a00(%rip),%r8        # 50c70 <anon.1e772d87cb7ab8eb3bdc2c5d344d7c2b.0.llvm.13921790192248287823+0xb88>
    7270:	48 8d 54 24 40       	lea    0x40(%rsp),%rdx
    7275:	be 10 00 00 00       	mov    $0x10,%esi
    727a:	ff 15 98 b7 04 00    	call   *0x4b798(%rip)        # 52a18 <_GLOBAL_OFFSET_TABLE_+0x120>
    7280:	eb 10                	jmp    7292 <_ZN3std4sync4once4Once10call_inner17he7c95df8c763a30dE+0x562>
    7282:	bf 30 00 00 00       	mov    $0x30,%edi
    7287:	be 08 00 00 00       	mov    $0x8,%esi
    728c:	ff 15 5e bb 04 00    	call   *0x4bb5e(%rip)        # 52df0 <_GLOBAL_OFFSET_TABLE_+0x4f8>
    7292:	0f 0b                	ud2
    7294:	48 8d 05 15 99 04 00 	lea    0x49915(%rip),%rax        # 50bb0 <anon.1e772d87cb7ab8eb3bdc2c5d344d7c2b.0.llvm.13921790192248287823+0xac8>
    729b:	48 89 44 24 40       	mov    %rax,0x40(%rsp)
    72a0:	48 c7 44 24 48 01 00 	movq   $0x1,0x48(%rsp)
    72a7:	00 00 
    72a9:	48 c7 44 24 50 00 00 	movq   $0x0,0x50(%rsp)
    72b0:	00 00 
    72b2:	48 8d 05 a7 b7 03 00 	lea    0x3b7a7(%rip),%rax        # 42a60 <_fini+0x3e38>
    72b9:	48 89 44 24 60       	mov    %rax,0x60(%rsp)
    72be:	48 c7 44 24 68 00 00 	movq   $0x0,0x68(%rsp)
    72c5:	00 00 
    72c7:	48 8d 7c 24 40       	lea    0x40(%rsp),%rdi
    72cc:	48 8b 74 24 70       	mov    0x70(%rsp),%rsi
    72d1:	ff 15 89 b9 04 00    	call   *0x4b989(%rip)        # 52c60 <_GLOBAL_OFFSET_TABLE_+0x368>
    72d7:	0f 0b                	ud2
    72d9:	48 8d 3d db c3 03 00 	lea    0x3c3db(%rip),%rdi        # 436bb <str.5+0x8eb>
    72e0:	be 40 00 00 00       	mov    $0x40,%esi
    72e5:	48 8b 54 24 70       	mov    0x70(%rsp),%rdx
    72ea:	ff 15 68 b8 04 00    	call   *0x4b868(%rip)        # 52b58 <_GLOBAL_OFFSET_TABLE_+0x260>
    72f0:	0f 0b                	ud2
    72f2:	48 89 c3             	mov    %rax,%rbx
    72f5:	48 8d 7c 24 18       	lea    0x18(%rsp),%rdi
    72fa:	e8 b1 32 00 00       	call   a5b0 <_ZN4core3ptr49drop_in_place$LT$std..sync..once..WaiterQueue$GT$17h88ca513b32631dbeE>
    72ff:	eb 70                	jmp    7371 <_ZN3std4sync4once4Once10call_inner17he7c95df8c763a30dE+0x641>
    7301:	ff 15 81 b9 04 00    	call   *0x4b981(%rip)        # 52c88 <_GLOBAL_OFFSET_TABLE_+0x390>
    7307:	0f 0b                	ud2
    7309:	eb 1e                	jmp    7329 <_ZN3std4sync4once4Once10call_inner17he7c95df8c763a30dE+0x5f9>
    730b:	48 89 c3             	mov    %rax,%rbx
    730e:	48 8d 7c 24 40       	lea    0x40(%rsp),%rdi
    7313:	e8 b8 38 00 00       	call   abd0 <_ZN4core3ptr75drop_in_place$LT$core..option..Option$LT$alloc..ffi..c_str..CString$GT$$GT$17h0feba098df570c6fE>
    7318:	eb 21                	jmp    733b <_ZN3std4sync4once4Once10call_inner17he7c95df8c763a30dE+0x60b>
    731a:	48 89 c3             	mov    %rax,%rbx
    731d:	48 8d 7c 24 40       	lea    0x40(%rsp),%rdi
    7322:	e8 a9 38 00 00       	call   abd0 <_ZN4core3ptr75drop_in_place$LT$core..option..Option$LT$alloc..ffi..c_str..CString$GT$$GT$17h0feba098df570c6fE>
    7327:	eb 3c                	jmp    7365 <_ZN3std4sync4once4Once10call_inner17he7c95df8c763a30dE+0x635>
    7329:	48 89 c3             	mov    %rax,%rbx
    732c:	eb 1e                	jmp    734c <_ZN3std4sync4once4Once10call_inner17he7c95df8c763a30dE+0x61c>
    732e:	48 89 c3             	mov    %rax,%rbx
    7331:	48 8d 7c 24 30       	lea    0x30(%rsp),%rdi
    7336:	e8 b5 27 00 00       	call   9af0 <_ZN4core3ptr107drop_in_place$LT$alloc..sync..Arc$LT$core..mem..maybe_uninit..MaybeUninit$LT$std..thread..Inner$GT$$GT$$GT$17hff24564fc625bec8E>
    733b:	48 8b 44 24 10       	mov    0x10(%rsp),%rax
    7340:	48 8d b8 b0 ff ff ff 	lea    -0x50(%rax),%rdi
    7347:	e8 d4 27 00 00       	call   9b20 <_ZN4core3ptr115drop_in_place$LT$core..cell..RefMut$LT$core..option..Option$LT$std..sys_common..thread_info..ThreadInfo$GT$$GT$$GT$17hc7d68d93357fabd8E>
    734c:	48 8d 7c 24 18       	lea    0x18(%rsp),%rdi
    7351:	e8 9a 31 00 00       	call   a4f0 <_ZN4core3ptr44drop_in_place$LT$std..sync..once..Waiter$GT$17hc38a25d0de8ff485E>
    7356:	eb 19                	jmp    7371 <_ZN3std4sync4once4Once10call_inner17he7c95df8c763a30dE+0x641>
    7358:	48 89 c3             	mov    %rax,%rbx
    735b:	48 8d 7c 24 30       	lea    0x30(%rsp),%rdi
    7360:	e8 8b 27 00 00       	call   9af0 <_ZN4core3ptr107drop_in_place$LT$alloc..sync..Arc$LT$core..mem..maybe_uninit..MaybeUninit$LT$std..thread..Inner$GT$$GT$$GT$17hff24564fc625bec8E>
    7365:	48 8d bd b0 ff ff ff 	lea    -0x50(%rbp),%rdi
    736c:	e8 af 27 00 00       	call   9b20 <_ZN4core3ptr115drop_in_place$LT$core..cell..RefMut$LT$core..option..Option$LT$std..sys_common..thread_info..ThreadInfo$GT$$GT$$GT$17hc7d68d93357fabd8E>
    7371:	48 89 df             	mov    %rbx,%rdi
    7374:	e8 c7 ec ff ff       	call   6040 <_Unwind_Resume@plt>
    7379:	0f 0b                	ud2
    737b:	0f 1f 44 00 00       	nopl   0x0(%rax,%rax,1)

0000000000007380 <_ZN3std4sync9once_lock17OnceLock$LT$T$GT$10initialize17h2a49720d0d308b37E>:
    7380:	48 83 ec 28          	sub    $0x28,%rsp
    7384:	48 8b 05 bd bc 04 00 	mov    0x4bcbd(%rip),%rax        # 53048 <_ZN3std2io5stdio6STDOUT17hc89cd28044f840c4E>
    738b:	48 83 f8 03          	cmp    $0x3,%rax
    738f:	75 05                	jne    7396 <_ZN3std4sync9once_lock17OnceLock$LT$T$GT$10initialize17h2a49720d0d308b37E+0x16>
    7391:	48 83 c4 28          	add    $0x28,%rsp
    7395:	c3                   	ret
    7396:	48 89 7c 24 10       	mov    %rdi,0x10(%rsp)
    739b:	48 8d 05 ae bc 04 00 	lea    0x4bcae(%rip),%rax        # 53050 <_ZN3std2io5stdio6STDOUT17hc89cd28044f840c4E+0x8>
    73a2:	48 89 44 24 18       	mov    %rax,0x18(%rsp)
    73a7:	48 8d 3d 9a bc 04 00 	lea    0x4bc9a(%rip),%rdi        # 53048 <_ZN3std2io5stdio6STDOUT17hc89cd28044f840c4E>
    73ae:	48 89 e0             	mov    %rsp,%rax
    73b1:	48 89 44 24 20       	mov    %rax,0x20(%rsp)
    73b6:	48 8d 44 24 10       	lea    0x10(%rsp),%rax
    73bb:	48 89 44 24 08       	mov    %rax,0x8(%rsp)
    73c0:	48 8d 0d 69 97 04 00 	lea    0x49769(%rip),%rcx        # 50b30 <anon.1e772d87cb7ab8eb3bdc2c5d344d7c2b.0.llvm.13921790192248287823+0xa48>
    73c7:	4c 8d 05 8a 97 04 00 	lea    0x4978a(%rip),%r8        # 50b58 <anon.1e772d87cb7ab8eb3bdc2c5d344d7c2b.0.llvm.13921790192248287823+0xa70>
    73ce:	48 8d 54 24 08       	lea    0x8(%rsp),%rdx
    73d3:	be 01 00 00 00       	mov    $0x1,%esi
    73d8:	ff 15 3a ba 04 00    	call   *0x4ba3a(%rip)        # 52e18 <_GLOBAL_OFFSET_TABLE_+0x520>
    73de:	48 83 c4 28          	add    $0x28,%rsp
    73e2:	c3                   	ret
    73e3:	66 2e 0f 1f 84 00 00 	cs nopw 0x0(%rax,%rax,1)
    73ea:	00 00 00 
    73ed:	0f 1f 00             	nopl   (%rax)

00000000000073f0 <_ZN3std4sync9once_lock17OnceLock$LT$T$GT$10initialize17h790e354a98603de5E>:
    73f0:	48 83 ec 28          	sub    $0x28,%rsp
    73f4:	48 8b 05 4d bc 04 00 	mov    0x4bc4d(%rip),%rax        # 53048 <_ZN3std2io5stdio6STDOUT17hc89cd28044f840c4E>
    73fb:	48 83 f8 03          	cmp    $0x3,%rax
    73ff:	75 05                	jne    7406 <_ZN3std4sync9once_lock17OnceLock$LT$T$GT$10initialize17h790e354a98603de5E+0x16>
    7401:	48 83 c4 28          	add    $0x28,%rsp
    7405:	c3                   	ret
    7406:	48 8d 05 43 bc 04 00 	lea    0x4bc43(%rip),%rax        # 53050 <_ZN3std2io5stdio6STDOUT17hc89cd28044f840c4E+0x8>
    740d:	48 89 44 24 18       	mov    %rax,0x18(%rsp)
    7412:	48 8d 3d 2f bc 04 00 	lea    0x4bc2f(%rip),%rdi        # 53048 <_ZN3std2io5stdio6STDOUT17hc89cd28044f840c4E>
    7419:	48 8d 44 24 08       	lea    0x8(%rsp),%rax
    741e:	48 89 44 24 20       	mov    %rax,0x20(%rsp)
    7423:	48 8d 44 24 18       	lea    0x18(%rsp),%rax
    7428:	48 89 44 24 10       	mov    %rax,0x10(%rsp)
    742d:	48 8d 0d 3c 97 04 00 	lea    0x4973c(%rip),%rcx        # 50b70 <anon.1e772d87cb7ab8eb3bdc2c5d344d7c2b.0.llvm.13921790192248287823+0xa88>
    7434:	4c 8d 05 1d 97 04 00 	lea    0x4971d(%rip),%r8        # 50b58 <anon.1e772d87cb7ab8eb3bdc2c5d344d7c2b.0.llvm.13921790192248287823+0xa70>
    743b:	48 8d 54 24 10       	lea    0x10(%rsp),%rdx
    7440:	be 01 00 00 00       	mov    $0x1,%esi
    7445:	ff 15 cd b9 04 00    	call   *0x4b9cd(%rip)        # 52e18 <_GLOBAL_OFFSET_TABLE_+0x520>
    744b:	48 83 c4 28          	add    $0x28,%rsp
    744f:	c3                   	ret

0000000000007450 <_ZN3std9panicking11panic_count17is_zero_slow_path17h4e0b02f3f57dc9e8E>:
    7450:	50                   	push   %rax
    7451:	66 66 66 64 48 8b 04 	data16 data16 data16 mov %fs:0x0,%rax
    7458:	25 00 00 00 00 
    745d:	48 83 b8 f8 ff ff ff 	cmpq   $0x0,-0x8(%rax)
    7464:	00 
    7465:	0f 94 c0             	sete   %al
    7468:	59                   	pop    %rcx
    7469:	c3                   	ret
    746a:	66 0f 1f 44 00 00    	nopw   0x0(%rax,%rax,1)

0000000000007470 <_ZN3std3sys4unix5locks11futex_mutex5Mutex14lock_contended17h7223893ba24c4537E>:
    7470:	41 56                	push   %r14
    7472:	53                   	push   %rbx
    7473:	48 83 ec 18          	sub    $0x18,%rsp
    7477:	48 89 fb             	mov    %rdi,%rbx
    747a:	8b 07                	mov    (%rdi),%eax
    747c:	83 f8 01             	cmp    $0x1,%eax
    747f:	75 21                	jne    74a2 <_ZN3std3sys4unix5locks11futex_mutex5Mutex14lock_contended17h7223893ba24c4537E+0x32>
    7481:	b9 9d ff ff ff       	mov    $0xffffff9d,%ecx
    7486:	66 2e 0f 1f 84 00 00 	cs nopw 0x0(%rax,%rax,1)
    748d:	00 00 00 
    7490:	f3 90                	pause
    7492:	8b 03                	mov    (%rbx),%eax
    7494:	83 f8 01             	cmp    $0x1,%eax
    7497:	75 09                	jne    74a2 <_ZN3std3sys4unix5locks11futex_mutex5Mutex14lock_contended17h7223893ba24c4537E+0x32>
    7499:	8d 51 01             	lea    0x1(%rcx),%edx
    749c:	85 c9                	test   %ecx,%ecx
    749e:	89 d1                	mov    %edx,%ecx
    74a0:	75 ee                	jne    7490 <_ZN3std3sys4unix5locks11futex_mutex5Mutex14lock_contended17h7223893ba24c4537E+0x20>
    74a2:	85 c0                	test   %eax,%eax
    74a4:	75 15                	jne    74bb <_ZN3std3sys4unix5locks11futex_mutex5Mutex14lock_contended17h7223893ba24c4537E+0x4b>
    74a6:	b9 01 00 00 00       	mov    $0x1,%ecx
    74ab:	31 c0                	xor    %eax,%eax
    74ad:	f0 0f b1 0b          	lock cmpxchg %ecx,(%rbx)
    74b1:	75 08                	jne    74bb <_ZN3std3sys4unix5locks11futex_mutex5Mutex14lock_contended17h7223893ba24c4537E+0x4b>
    74b3:	48 83 c4 18          	add    $0x18,%rsp
    74b7:	5b                   	pop    %rbx
    74b8:	41 5e                	pop    %r14
    74ba:	c3                   	ret
    74bb:	49 89 e6             	mov    %rsp,%r14
    74be:	66 90                	xchg   %ax,%ax
    74c0:	83 f8 02             	cmp    $0x2,%eax
    74c3:	74 0b                	je     74d0 <_ZN3std3sys4unix5locks11futex_mutex5Mutex14lock_contended17h7223893ba24c4537E+0x60>
    74c5:	b8 02 00 00 00       	mov    $0x2,%eax
    74ca:	87 03                	xchg   %eax,(%rbx)
    74cc:	85 c0                	test   %eax,%eax
    74ce:	74 e3                	je     74b3 <_ZN3std3sys4unix5locks11futex_mutex5Mutex14lock_contended17h7223893ba24c4537E+0x43>
    74d0:	48 c7 04 24 00 00 00 	movq   $0x0,(%rsp)
    74d7:	00 
    74d8:	48 89 df             	mov    %rbx,%rdi
    74db:	be 02 00 00 00       	mov    $0x2,%esi
    74e0:	4c 89 f2             	mov    %r14,%rdx
    74e3:	e8 a8 c5 01 00       	call   23a90 <_ZN3std3sys4unix5futex10futex_wait17h1f4a8a8e7ed398bbE>
    74e8:	8b 03                	mov    (%rbx),%eax
    74ea:	83 f8 01             	cmp    $0x1,%eax
    74ed:	75 d1                	jne    74c0 <_ZN3std3sys4unix5locks11futex_mutex5Mutex14lock_contended17h7223893ba24c4537E+0x50>
    74ef:	b9 9d ff ff ff       	mov    $0xffffff9d,%ecx
    74f4:	66 66 66 2e 0f 1f 84 	data16 data16 cs nopw 0x0(%rax,%rax,1)
    74fb:	00 00 00 00 00 
    7500:	f3 90                	pause
    7502:	8b 03                	mov    (%rbx),%eax
    7504:	8d 51 01             	lea    0x1(%rcx),%edx
    7507:	83 f8 01             	cmp    $0x1,%eax
    750a:	75 b4                	jne    74c0 <_ZN3std3sys4unix5locks11futex_mutex5Mutex14lock_contended17h7223893ba24c4537E+0x50>
    750c:	85 c9                	test   %ecx,%ecx
    750e:	89 d1                	mov    %edx,%ecx
    7510:	75 ee                	jne    7500 <_ZN3std3sys4unix5locks11futex_mutex5Mutex14lock_contended17h7223893ba24c4537E+0x90>
    7512:	eb ac                	jmp    74c0 <_ZN3std3sys4unix5locks11futex_mutex5Mutex14lock_contended17h7223893ba24c4537E+0x50>
    7514:	66 2e 0f 1f 84 00 00 	cs nopw 0x0(%rax,%rax,1)
    751b:	00 00 00 
    751e:	66 90                	xchg   %ax,%ax

0000000000007520 <_ZN3std3sys4unix5locks12futex_rwlock6RwLock14read_contended17h9b4220c424e9fb8cE>:
    7520:	41 56                	push   %r14
    7522:	53                   	push   %rbx
    7523:	48 83 ec 38          	sub    $0x38,%rsp
    7527:	48 89 fb             	mov    %rdi,%rbx
    752a:	8b 07                	mov    (%rdi),%eax
    752c:	3d ff ff ff 3f       	cmp    $0x3fffffff,%eax
    7531:	75 21                	jne    7554 <_ZN3std3sys4unix5locks12futex_rwlock6RwLock14read_contended17h9b4220c424e9fb8cE+0x34>
    7533:	b9 9d ff ff ff       	mov    $0xffffff9d,%ecx
    7538:	0f 1f 84 00 00 00 00 	nopl   0x0(%rax,%rax,1)
    753f:	00 
    7540:	f3 90                	pause
    7542:	8b 03                	mov    (%rbx),%eax
    7544:	3d ff ff ff 3f       	cmp    $0x3fffffff,%eax
    7549:	75 09                	jne    7554 <_ZN3std3sys4unix5locks12futex_rwlock6RwLock14read_contended17h9b4220c424e9fb8cE+0x34>
    754b:	8d 51 01             	lea    0x1(%rcx),%edx
    754e:	85 c9                	test   %ecx,%ecx
    7550:	89 d1                	mov    %edx,%ecx
    7552:	75 ec                	jne    7540 <_ZN3std3sys4unix5locks12futex_rwlock6RwLock14read_contended17h9b4220c424e9fb8cE+0x20>
    7554:	4c 8d 74 24 08       	lea    0x8(%rsp),%r14
    7559:	eb 0e                	jmp    7569 <_ZN3std3sys4unix5locks12futex_rwlock6RwLock14read_contended17h9b4220c424e9fb8cE+0x49>
    755b:	0f 1f 44 00 00       	nopl   0x0(%rax,%rax,1)
    7560:	8d 48 01             	lea    0x1(%rax),%ecx
    7563:	f0 0f b1 0b          	lock cmpxchg %ecx,(%rbx)
    7567:	74 7d                	je     75e6 <_ZN3std3sys4unix5locks12futex_rwlock6RwLock14read_contended17h9b4220c424e9fb8cE+0xc6>
    7569:	89 c1                	mov    %eax,%ecx
    756b:	f7 d1                	not    %ecx
    756d:	f7 c1 fe ff ff 3f    	test   $0x3ffffffe,%ecx
    7573:	74 0e                	je     7583 <_ZN3std3sys4unix5locks12futex_rwlock6RwLock14read_contended17h9b4220c424e9fb8cE+0x63>
    7575:	89 c1                	mov    %eax,%ecx
    7577:	81 e1 00 00 00 40    	and    $0x40000000,%ecx
    757d:	75 04                	jne    7583 <_ZN3std3sys4unix5locks12futex_rwlock6RwLock14read_contended17h9b4220c424e9fb8cE+0x63>
    757f:	85 c0                	test   %eax,%eax
    7581:	79 dd                	jns    7560 <_ZN3std3sys4unix5locks12futex_rwlock6RwLock14read_contended17h9b4220c424e9fb8cE+0x40>
    7583:	89 c1                	mov    %eax,%ecx
    7585:	81 e1 ff ff ff 3f    	and    $0x3fffffff,%ecx
    758b:	81 f9 fe ff ff 3f    	cmp    $0x3ffffffe,%ecx
    7591:	74 5b                	je     75ee <_ZN3std3sys4unix5locks12futex_rwlock6RwLock14read_contended17h9b4220c424e9fb8cE+0xce>
    7593:	89 c6                	mov    %eax,%esi
    7595:	81 ce 00 00 00 40    	or     $0x40000000,%esi
    759b:	a9 00 00 00 40       	test   $0x40000000,%eax
    75a0:	75 06                	jne    75a8 <_ZN3std3sys4unix5locks12futex_rwlock6RwLock14read_contended17h9b4220c424e9fb8cE+0x88>
    75a2:	f0 0f b1 33          	lock cmpxchg %esi,(%rbx)
    75a6:	75 c1                	jne    7569 <_ZN3std3sys4unix5locks12futex_rwlock6RwLock14read_contended17h9b4220c424e9fb8cE+0x49>
    75a8:	48 c7 44 24 08 00 00 	movq   $0x0,0x8(%rsp)
    75af:	00 00 
    75b1:	48 89 df             	mov    %rbx,%rdi
    75b4:	4c 89 f2             	mov    %r14,%rdx
    75b7:	e8 d4 c4 01 00       	call   23a90 <_ZN3std3sys4unix5futex10futex_wait17h1f4a8a8e7ed398bbE>
    75bc:	8b 03                	mov    (%rbx),%eax
    75be:	3d ff ff ff 3f       	cmp    $0x3fffffff,%eax
    75c3:	75 a4                	jne    7569 <_ZN3std3sys4unix5locks12futex_rwlock6RwLock14read_contended17h9b4220c424e9fb8cE+0x49>
    75c5:	b9 9d ff ff ff       	mov    $0xffffff9d,%ecx
    75ca:	66 0f 1f 44 00 00    	nopw   0x0(%rax,%rax,1)
    75d0:	f3 90                	pause
    75d2:	8b 03                	mov    (%rbx),%eax
    75d4:	8d 51 01             	lea    0x1(%rcx),%edx
    75d7:	3d ff ff ff 3f       	cmp    $0x3fffffff,%eax
    75dc:	75 8b                	jne    7569 <_ZN3std3sys4unix5locks12futex_rwlock6RwLock14read_contended17h9b4220c424e9fb8cE+0x49>
    75de:	85 c9                	test   %ecx,%ecx
    75e0:	89 d1                	mov    %edx,%ecx
    75e2:	75 ec                	jne    75d0 <_ZN3std3sys4unix5locks12futex_rwlock6RwLock14read_contended17h9b4220c424e9fb8cE+0xb0>
    75e4:	eb 83                	jmp    7569 <_ZN3std3sys4unix5locks12futex_rwlock6RwLock14read_contended17h9b4220c424e9fb8cE+0x49>
    75e6:	48 83 c4 38          	add    $0x38,%rsp
    75ea:	5b                   	pop    %rbx
    75eb:	41 5e                	pop    %r14
    75ed:	c3                   	ret
    75ee:	48 8d 05 33 9c 04 00 	lea    0x49c33(%rip),%rax        # 51228 <anon.1e772d87cb7ab8eb3bdc2c5d344d7c2b.0.llvm.13921790192248287823+0x1140>
    75f5:	48 89 44 24 08       	mov    %rax,0x8(%rsp)
    75fa:	48 c7 44 24 10 01 00 	movq   $0x1,0x10(%rsp)
    7601:	00 00 
    7603:	48 c7 44 24 18 00 00 	movq   $0x0,0x18(%rsp)
    760a:	00 00 
    760c:	48 8d 05 4d b4 03 00 	lea    0x3b44d(%rip),%rax        # 42a60 <_fini+0x3e38>
    7613:	48 89 44 24 28       	mov    %rax,0x28(%rsp)
    7618:	48 c7 44 24 30 00 00 	movq   $0x0,0x30(%rsp)
    761f:	00 00 
    7621:	48 8d 35 10 9c 04 00 	lea    0x49c10(%rip),%rsi        # 51238 <anon.1e772d87cb7ab8eb3bdc2c5d344d7c2b.0.llvm.13921790192248287823+0x1150>
    7628:	48 8d 7c 24 08       	lea    0x8(%rsp),%rdi
    762d:	ff 15 2d b6 04 00    	call   *0x4b62d(%rip)        # 52c60 <_GLOBAL_OFFSET_TABLE_+0x368>
    7633:	0f 0b                	ud2
    7635:	66 2e 0f 1f 84 00 00 	cs nopw 0x0(%rax,%rax,1)
    763c:	00 00 00 
    763f:	90                   	nop

0000000000007640 <_ZN3std3sys4unix5locks12futex_rwlock6RwLock22wake_writer_or_readers17h6b2fb8be77f84bcaE>:
    7640:	53                   	push   %rbx
    7641:	f7 c6 ff ff ff 3f    	test   $0x3fffffff,%esi
    7647:	0f 85 ab 00 00 00    	jne    76f8 <_ZN3std3sys4unix5locks12futex_rwlock6RwLock22wake_writer_or_readers17h6b2fb8be77f84bcaE+0xb8>
    764d:	48 89 fb             	mov    %rdi,%rbx
    7650:	81 fe 00 00 00 80    	cmp    $0x80000000,%esi
    7656:	75 32                	jne    768a <_ZN3std3sys4unix5locks12futex_rwlock6RwLock22wake_writer_or_readers17h6b2fb8be77f84bcaE+0x4a>
    7658:	31 c9                	xor    %ecx,%ecx
    765a:	b8 00 00 00 80       	mov    $0x80000000,%eax
    765f:	f0 0f b1 0b          	lock cmpxchg %ecx,(%rbx)
    7663:	75 23                	jne    7688 <_ZN3std3sys4unix5locks12futex_rwlock6RwLock22wake_writer_or_readers17h6b2fb8be77f84bcaE+0x48>
    7665:	f0 ff 43 04          	lock incl 0x4(%rbx)
    7669:	48 83 c3 04          	add    $0x4,%rbx
    766d:	bf ca 00 00 00       	mov    $0xca,%edi
    7672:	48 89 de             	mov    %rbx,%rsi
    7675:	ba 81 00 00 00       	mov    $0x81,%edx
    767a:	b9 01 00 00 00       	mov    $0x1,%ecx
    767f:	31 c0                	xor    %eax,%eax
    7681:	5b                   	pop    %rbx
    7682:	ff 25 38 b6 04 00    	jmp    *0x4b638(%rip)        # 52cc0 <syscall@GLIBC_2.2.5>
    7688:	89 c6                	mov    %eax,%esi
    768a:	81 fe 00 00 00 c0    	cmp    $0xc0000000,%esi
    7690:	74 30                	je     76c2 <_ZN3std3sys4unix5locks12futex_rwlock6RwLock22wake_writer_or_readers17h6b2fb8be77f84bcaE+0x82>
    7692:	81 fe 00 00 00 40    	cmp    $0x40000000,%esi
    7698:	75 5c                	jne    76f6 <_ZN3std3sys4unix5locks12futex_rwlock6RwLock22wake_writer_or_readers17h6b2fb8be77f84bcaE+0xb6>
    769a:	31 c9                	xor    %ecx,%ecx
    769c:	b8 00 00 00 40       	mov    $0x40000000,%eax
    76a1:	f0 0f b1 0b          	lock cmpxchg %ecx,(%rbx)
    76a5:	75 4f                	jne    76f6 <_ZN3std3sys4unix5locks12futex_rwlock6RwLock22wake_writer_or_readers17h6b2fb8be77f84bcaE+0xb6>
    76a7:	bf ca 00 00 00       	mov    $0xca,%edi
    76ac:	48 89 de             	mov    %rbx,%rsi
    76af:	ba 81 00 00 00       	mov    $0x81,%edx
    76b4:	b9 ff ff ff 7f       	mov    $0x7fffffff,%ecx
    76b9:	31 c0                	xor    %eax,%eax
    76bb:	5b                   	pop    %rbx
    76bc:	ff 25 fe b5 04 00    	jmp    *0x4b5fe(%rip)        # 52cc0 <syscall@GLIBC_2.2.5>
    76c2:	b9 00 00 00 40       	mov    $0x40000000,%ecx
    76c7:	b8 00 00 00 c0       	mov    $0xc0000000,%eax
    76cc:	f0 0f b1 0b          	lock cmpxchg %ecx,(%rbx)
    76d0:	75 24                	jne    76f6 <_ZN3std3sys4unix5locks12futex_rwlock6RwLock22wake_writer_or_readers17h6b2fb8be77f84bcaE+0xb6>
    76d2:	48 8d 73 04          	lea    0x4(%rbx),%rsi
    76d6:	f0 ff 43 04          	lock incl 0x4(%rbx)
    76da:	bf ca 00 00 00       	mov    $0xca,%edi
    76df:	ba 81 00 00 00       	mov    $0x81,%edx
    76e4:	b9 01 00 00 00       	mov    $0x1,%ecx
    76e9:	31 c0                	xor    %eax,%eax
    76eb:	ff 15 cf b5 04 00    	call   *0x4b5cf(%rip)        # 52cc0 <syscall@GLIBC_2.2.5>
    76f1:	48 85 c0             	test   %rax,%rax
    76f4:	7e a4                	jle    769a <_ZN3std3sys4unix5locks12futex_rwlock6RwLock22wake_writer_or_readers17h6b2fb8be77f84bcaE+0x5a>
    76f6:	5b                   	pop    %rbx
    76f7:	c3                   	ret
    76f8:	48 8d 3d 30 c8 03 00 	lea    0x3c830(%rip),%rdi        # 43f2f <str.5+0x115f>
    76ff:	48 8d 15 4a 9b 04 00 	lea    0x49b4a(%rip),%rdx        # 51250 <anon.1e772d87cb7ab8eb3bdc2c5d344d7c2b.0.llvm.13921790192248287823+0x1168>
    7706:	be 24 00 00 00       	mov    $0x24,%esi
    770b:	ff 15 47 b4 04 00    	call   *0x4b447(%rip)        # 52b58 <_GLOBAL_OFFSET_TABLE_+0x260>
    7711:	0f 0b                	ud2
    7713:	66 2e 0f 1f 84 00 00 	cs nopw 0x0(%rax,%rax,1)
    771a:	00 00 00 
    771d:	0f 1f 00             	nopl   (%rax)

0000000000007720 <_ZN5alloc7raw_vec19RawVec$LT$T$C$A$GT$7reserve21do_reserve_and_handle17hff8cd3ffec34c334E>:
    7720:	41 56                	push   %r14
    7722:	53                   	push   %rbx
    7723:	48 83 ec 38          	sub    $0x38,%rsp
    7727:	48 01 d6             	add    %rdx,%rsi
    772a:	0f 82 a4 00 00 00    	jb     77d4 <_ZN5alloc7raw_vec19RawVec$LT$T$C$A$GT$7reserve21do_reserve_and_handle17hff8cd3ffec34c334E+0xb4>
    7730:	49 89 fe             	mov    %rdi,%r14
    7733:	48 8b 47 08          	mov    0x8(%rdi),%rax
    7737:	48 8d 0c 00          	lea    (%rax,%rax,1),%rcx
    773b:	48 39 f1             	cmp    %rsi,%rcx
    773e:	48 0f 47 f1          	cmova  %rcx,%rsi
    7742:	48 83 fe 09          	cmp    $0x9,%rsi
    7746:	bb 08 00 00 00       	mov    $0x8,%ebx
    774b:	48 0f 43 de          	cmovae %rsi,%rbx
    774f:	48 89 da             	mov    %rbx,%rdx
    7752:	48 f7 d2             	not    %rdx
    7755:	48 c1 ea 3f          	shr    $0x3f,%rdx
    7759:	48 85 c0             	test   %rax,%rax
    775c:	74 1e                	je     777c <_ZN5alloc7raw_vec19RawVec$LT$T$C$A$GT$7reserve21do_reserve_and_handle17hff8cd3ffec34c334E+0x5c>
    775e:	49 8b 0e             	mov    (%r14),%rcx
    7761:	48 89 c6             	mov    %rax,%rsi
    7764:	48 f7 d6             	not    %rsi
    7767:	48 c1 ee 3f          	shr    $0x3f,%rsi
    776b:	48 89 4c 24 08       	mov    %rcx,0x8(%rsp)
    7770:	48 89 44 24 10       	mov    %rax,0x10(%rsp)
    7775:	48 89 74 24 18       	mov    %rsi,0x18(%rsp)
    777a:	eb 09                	jmp    7785 <_ZN5alloc7raw_vec19RawVec$LT$T$C$A$GT$7reserve21do_reserve_and_handle17hff8cd3ffec34c334E+0x65>
    777c:	48 c7 44 24 18 00 00 	movq   $0x0,0x18(%rsp)
    7783:	00 00 
    7785:	48 8d 7c 24 20       	lea    0x20(%rsp),%rdi
    778a:	48 8d 4c 24 08       	lea    0x8(%rsp),%rcx
    778f:	48 89 de             	mov    %rbx,%rsi
    7792:	e8 49 56 02 00       	call   2cde0 <_ZN5alloc7raw_vec11finish_grow17h6eefd2422bc86aafE>
    7797:	48 83 7c 24 20 00    	cmpq   $0x0,0x20(%rsp)
    779d:	48 8b 7c 24 28       	mov    0x28(%rsp),%rdi
    77a2:	74 1c                	je     77c0 <_ZN5alloc7raw_vec19RawVec$LT$T$C$A$GT$7reserve21do_reserve_and_handle17hff8cd3ffec34c334E+0xa0>
    77a4:	48 8b 74 24 30       	mov    0x30(%rsp),%rsi
    77a9:	48 b8 01 00 00 00 00 	movabs $0x8000000000000001,%rax
    77b0:	00 00 80 
    77b3:	48 39 c6             	cmp    %rax,%rsi
    77b6:	75 17                	jne    77cf <_ZN5alloc7raw_vec19RawVec$LT$T$C$A$GT$7reserve21do_reserve_and_handle17hff8cd3ffec34c334E+0xaf>
    77b8:	48 83 c4 38          	add    $0x38,%rsp
    77bc:	5b                   	pop    %rbx
    77bd:	41 5e                	pop    %r14
    77bf:	c3                   	ret
    77c0:	49 89 3e             	mov    %rdi,(%r14)
    77c3:	49 89 5e 08          	mov    %rbx,0x8(%r14)
    77c7:	48 83 c4 38          	add    $0x38,%rsp
    77cb:	5b                   	pop    %rbx
    77cc:	41 5e                	pop    %r14
    77ce:	c3                   	ret
    77cf:	48 85 f6             	test   %rsi,%rsi
    77d2:	75 08                	jne    77dc <_ZN5alloc7raw_vec19RawVec$LT$T$C$A$GT$7reserve21do_reserve_and_handle17hff8cd3ffec34c334E+0xbc>
    77d4:	ff 15 76 b1 04 00    	call   *0x4b176(%rip)        # 52950 <_GLOBAL_OFFSET_TABLE_+0x58>
    77da:	0f 0b                	ud2
    77dc:	ff 15 0e b6 04 00    	call   *0x4b60e(%rip)        # 52df0 <_GLOBAL_OFFSET_TABLE_+0x4f8>
    77e2:	0f 0b                	ud2
    77e4:	66 2e 0f 1f 84 00 00 	cs nopw 0x0(%rax,%rax,1)
    77eb:	00 00 00 
    77ee:	66 90                	xchg   %ax,%ax

00000000000077f0 <_ZN4core9panicking13assert_failed17h26cf0d950243b9d4E>:
    77f0:	48 83 ec 58          	sub    $0x58,%rsp
    77f4:	48 89 7c 24 10       	mov    %rdi,0x10(%rsp)
    77f9:	48 8d 05 30 ba 03 00 	lea    0x3ba30(%rip),%rax        # 43230 <str.5+0x460>
    7800:	48 89 44 24 18       	mov    %rax,0x18(%rsp)
    7805:	0f 10 06             	movups (%rsi),%xmm0
    7808:	0f 10 4e 10          	movups 0x10(%rsi),%xmm1
    780c:	0f 10 56 20          	movups 0x20(%rsi),%xmm2
    7810:	0f 29 54 24 40       	movaps %xmm2,0x40(%rsp)
    7815:	0f 29 4c 24 30       	movaps %xmm1,0x30(%rsp)
    781a:	0f 29 44 24 20       	movaps %xmm0,0x20(%rsp)
    781f:	48 8d 05 ba 9b 04 00 	lea    0x49bba(%rip),%rax        # 513e0 <_ZN6object3elf12ELF_NOTE_GNU17hbaeef7f10d5c5125E+0x88>
    7826:	48 89 04 24          	mov    %rax,(%rsp)
    782a:	48 8d 15 f7 9b 04 00 	lea    0x49bf7(%rip),%rdx        # 51428 <_ZN6object3elf12ELF_NOTE_GNU17hbaeef7f10d5c5125E+0xd0>
    7831:	48 8d 74 24 10       	lea    0x10(%rsp),%rsi
    7836:	48 8d 4c 24 18       	lea    0x18(%rsp),%rcx
    783b:	4c 8d 4c 24 20       	lea    0x20(%rsp),%r9
    7840:	bf 01 00 00 00       	mov    $0x1,%edi
    7845:	49 89 d0             	mov    %rdx,%r8
    7848:	ff 15 72 b7 04 00    	call   *0x4b772(%rip)        # 52fc0 <_GLOBAL_OFFSET_TABLE_+0x6c8>
    784e:	0f 0b                	ud2

0000000000007850 <_ZN5alloc7raw_vec19RawVec$LT$T$C$A$GT$7reserve21do_reserve_and_handle17h912e8c3c82f48ac6E>:
    7850:	41 56                	push   %r14
    7852:	53                   	push   %rbx
    7853:	48 83 ec 38          	sub    $0x38,%rsp
    7857:	48 01 d6             	add    %rdx,%rsi
    785a:	0f 82 9e 00 00 00    	jb     78fe <_ZN5alloc7raw_vec19RawVec$LT$T$C$A$GT$7reserve21do_reserve_and_handle17h912e8c3c82f48ac6E+0xae>
    7860:	49 89 fe             	mov    %rdi,%r14
    7863:	48 8b 47 08          	mov    0x8(%rdi),%rax
    7867:	48 8d 0c 00          	lea    (%rax,%rax,1),%rcx
    786b:	48 39 f1             	cmp    %rsi,%rcx
    786e:	48 0f 47 f1          	cmova  %rcx,%rsi
    7872:	48 83 fe 09          	cmp    $0x9,%rsi
    7876:	bb 08 00 00 00       	mov    $0x8,%ebx
    787b:	48 0f 43 de          	cmovae %rsi,%rbx
    787f:	48 89 da             	mov    %rbx,%rdx
    7882:	48 f7 d2             	not    %rdx
    7885:	48 c1 ea 3f          	shr    $0x3f,%rdx
    7889:	48 85 c0             	test   %rax,%rax
    788c:	74 18                	je     78a6 <_ZN5alloc7raw_vec19RawVec$LT$T$C$A$GT$7reserve21do_reserve_and_handle17h912e8c3c82f48ac6E+0x56>
    788e:	49 8b 0e             	mov    (%r14),%rcx
    7891:	48 89 4c 24 08       	mov    %rcx,0x8(%rsp)
    7896:	48 89 44 24 10       	mov    %rax,0x10(%rsp)
    789b:	48 c7 44 24 18 01 00 	movq   $0x1,0x18(%rsp)
    78a2:	00 00 
    78a4:	eb 09                	jmp    78af <_ZN5alloc7raw_vec19RawVec$LT$T$C$A$GT$7reserve21do_reserve_and_handle17h912e8c3c82f48ac6E+0x5f>
    78a6:	48 c7 44 24 18 00 00 	movq   $0x0,0x18(%rsp)
    78ad:	00 00 
    78af:	48 8d 7c 24 20       	lea    0x20(%rsp),%rdi
    78b4:	48 8d 4c 24 08       	lea    0x8(%rsp),%rcx
    78b9:	48 89 de             	mov    %rbx,%rsi
    78bc:	e8 3f 11 03 00       	call   38a00 <_ZN5alloc7raw_vec11finish_grow17heecd233b6e859c4eE>
    78c1:	48 83 7c 24 20 00    	cmpq   $0x0,0x20(%rsp)
    78c7:	48 8b 7c 24 28       	mov    0x28(%rsp),%rdi
    78cc:	74 1c                	je     78ea <_ZN5alloc7raw_vec19RawVec$LT$T$C$A$GT$7reserve21do_reserve_and_handle17h912e8c3c82f48ac6E+0x9a>
    78ce:	48 8b 74 24 30       	mov    0x30(%rsp),%rsi
    78d3:	48 b8 01 00 00 00 00 	movabs $0x8000000000000001,%rax
    78da:	00 00 80 
    78dd:	48 39 c6             	cmp    %rax,%rsi
    78e0:	75 17                	jne    78f9 <_ZN5alloc7raw_vec19RawVec$LT$T$C$A$GT$7reserve21do_reserve_and_handle17h912e8c3c82f48ac6E+0xa9>
    78e2:	48 83 c4 38          	add    $0x38,%rsp
    78e6:	5b                   	pop    %rbx
    78e7:	41 5e                	pop    %r14
    78e9:	c3                   	ret
    78ea:	49 89 3e             	mov    %rdi,(%r14)
    78ed:	49 89 5e 08          	mov    %rbx,0x8(%r14)
    78f1:	48 83 c4 38          	add    $0x38,%rsp
    78f5:	5b                   	pop    %rbx
    78f6:	41 5e                	pop    %r14
    78f8:	c3                   	ret
    78f9:	48 85 f6             	test   %rsi,%rsi
    78fc:	75 08                	jne    7906 <_ZN5alloc7raw_vec19RawVec$LT$T$C$A$GT$7reserve21do_reserve_and_handle17h912e8c3c82f48ac6E+0xb6>
    78fe:	ff 15 4c b0 04 00    	call   *0x4b04c(%rip)        # 52950 <_GLOBAL_OFFSET_TABLE_+0x58>
    7904:	0f 0b                	ud2
    7906:	ff 15 e4 b4 04 00    	call   *0x4b4e4(%rip)        # 52df0 <_GLOBAL_OFFSET_TABLE_+0x4f8>
    790c:	0f 0b                	ud2
    790e:	66 90                	xchg   %ax,%ax

0000000000007910 <_ZN5alloc5alloc18handle_alloc_error17h87e3407648c6f1aeE>:
    7910:	50                   	push   %rax
    7911:	ff 15 91 b3 04 00    	call   *0x4b391(%rip)        # 52ca8 <_GLOBAL_OFFSET_TABLE_+0x3b0>
    7917:	0f 0b                	ud2
    7919:	0f 1f 80 00 00 00 00 	nopl   0x0(%rax)

0000000000007920 <_ZN5alloc3vec16Vec$LT$T$C$A$GT$6remove13assert_failed17h798539cf2c9cc90dE>:
    7920:	48 83 ec 68          	sub    $0x68,%rsp
    7924:	48 89 7c 24 08       	mov    %rdi,0x8(%rsp)
    7929:	48 89 74 24 10       	mov    %rsi,0x10(%rsp)
    792e:	48 8d 44 24 08       	lea    0x8(%rsp),%rax
    7933:	48 89 44 24 18       	mov    %rax,0x18(%rsp)
    7938:	48 8d 05 11 6b 03 00 	lea    0x36b11(%rip),%rax        # 3e450 <_ZN4core3fmt3num3imp52_$LT$impl$u20$core..fmt..Display$u20$for$u20$u64$GT$3fmt17hde3000029be65f71E>
    793f:	48 89 44 24 20       	mov    %rax,0x20(%rsp)
    7944:	48 8d 4c 24 10       	lea    0x10(%rsp),%rcx
    7949:	48 89 4c 24 28       	mov    %rcx,0x28(%rsp)
    794e:	48 89 44 24 30       	mov    %rax,0x30(%rsp)
    7953:	48 8d 05 be a7 04 00 	lea    0x4a7be(%rip),%rax        # 52118 <_ZN6object3elf12ELF_NOTE_GNU17hbaeef7f10d5c5125E+0xdc0>
    795a:	48 89 44 24 38       	mov    %rax,0x38(%rsp)
    795f:	48 c7 44 24 40 03 00 	movq   $0x3,0x40(%rsp)
    7966:	00 00 
    7968:	48 c7 44 24 48 00 00 	movq   $0x0,0x48(%rsp)
    796f:	00 00 
    7971:	48 8d 44 24 18       	lea    0x18(%rsp),%rax
    7976:	48 89 44 24 58       	mov    %rax,0x58(%rsp)
    797b:	48 c7 44 24 60 02 00 	movq   $0x2,0x60(%rsp)
    7982:	00 00 
    7984:	48 8d 7c 24 38       	lea    0x38(%rsp),%rdi
    7989:	48 89 d6             	mov    %rdx,%rsi
    798c:	ff 15 ce b2 04 00    	call   *0x4b2ce(%rip)        # 52c60 <_GLOBAL_OFFSET_TABLE_+0x368>
    7992:	0f 0b                	ud2
    7994:	66 2e 0f 1f 84 00 00 	cs nopw 0x0(%rax,%rax,1)
    799b:	00 00 00 
    799e:	66 90                	xchg   %ax,%ax

00000000000079a0 <_ZN4core6option13expect_failed17h03d502d0855ade10E>:
    79a0:	50                   	push   %rax
    79a1:	e8 9a 1f 03 00       	call   39940 <_ZN4core9panicking9panic_str17h7d5968eea59d06d2E>
    79a6:	0f 0b                	ud2
    79a8:	0f 1f 84 00 00 00 00 	nopl   0x0(%rax,%rax,1)
    79af:	00 

00000000000079b0 <_ZN4core9panicking5panic17hf0565452d0d0936cE>:
    79b0:	48 83 ec 48          	sub    $0x48,%rsp
    79b4:	48 89 7c 24 08       	mov    %rdi,0x8(%rsp)
    79b9:	48 89 74 24 10       	mov    %rsi,0x10(%rsp)
    79be:	48 8d 44 24 08       	lea    0x8(%rsp),%rax
    79c3:	48 89 44 24 18       	mov    %rax,0x18(%rsp)
    79c8:	48 c7 44 24 20 01 00 	movq   $0x1,0x20(%rsp)
    79cf:	00 00 
    79d1:	48 c7 44 24 28 00 00 	movq   $0x0,0x28(%rsp)
    79d8:	00 00 
    79da:	48 8d 05 4f e2 03 00 	lea    0x3e24f(%rip),%rax        # 45c30 <str.5+0x2e60>
    79e1:	48 89 44 24 38       	mov    %rax,0x38(%rsp)
    79e6:	48 c7 44 24 40 00 00 	movq   $0x0,0x40(%rsp)
    79ed:	00 00 
    79ef:	48 8d 7c 24 18       	lea    0x18(%rsp),%rdi
    79f4:	48 89 d6             	mov    %rdx,%rsi
    79f7:	ff 15 63 b2 04 00    	call   *0x4b263(%rip)        # 52c60 <_GLOBAL_OFFSET_TABLE_+0x368>
    79fd:	0f 0b                	ud2
    79ff:	90                   	nop

0000000000007a00 <_ZN4core9panicking18panic_bounds_check17h8a412b863558c16aE>:
    7a00:	48 83 ec 68          	sub    $0x68,%rsp
    7a04:	48 89 7c 24 08       	mov    %rdi,0x8(%rsp)
    7a09:	48 89 74 24 10       	mov    %rsi,0x10(%rsp)
    7a0e:	48 8d 44 24 10       	lea    0x10(%rsp),%rax
    7a13:	48 89 44 24 18       	mov    %rax,0x18(%rsp)
    7a18:	48 8d 05 31 6a 03 00 	lea    0x36a31(%rip),%rax        # 3e450 <_ZN4core3fmt3num3imp52_$LT$impl$u20$core..fmt..Display$u20$for$u20$u64$GT$3fmt17hde3000029be65f71E>
    7a1f:	48 89 44 24 20       	mov    %rax,0x20(%rsp)
    7a24:	48 8d 4c 24 08       	lea    0x8(%rsp),%rcx
    7a29:	48 89 4c 24 28       	mov    %rcx,0x28(%rsp)
    7a2e:	48 89 44 24 30       	mov    %rax,0x30(%rsp)
    7a33:	48 8d 05 86 a7 04 00 	lea    0x4a786(%rip),%rax        # 521c0 <_ZN6object3elf12ELF_NOTE_GNU17hbaeef7f10d5c5125E+0xe68>
    7a3a:	48 89 44 24 38       	mov    %rax,0x38(%rsp)
    7a3f:	48 c7 44 24 40 02 00 	movq   $0x2,0x40(%rsp)
    7a46:	00 00 
    7a48:	48 c7 44 24 48 00 00 	movq   $0x0,0x48(%rsp)
    7a4f:	00 00 
    7a51:	48 8d 44 24 18       	lea    0x18(%rsp),%rax
    7a56:	48 89 44 24 58       	mov    %rax,0x58(%rsp)
    7a5b:	48 c7 44 24 60 02 00 	movq   $0x2,0x60(%rsp)
    7a62:	00 00 
    7a64:	48 8d 7c 24 38       	lea    0x38(%rsp),%rdi
    7a69:	48 89 d6             	mov    %rdx,%rsi
    7a6c:	ff 15 ee b1 04 00    	call   *0x4b1ee(%rip)        # 52c60 <_GLOBAL_OFFSET_TABLE_+0x368>
    7a72:	0f 0b                	ud2
    7a74:	66 2e 0f 1f 84 00 00 	cs nopw 0x0(%rax,%rax,1)
    7a7b:	00 00 00 
    7a7e:	66 90                	xchg   %ax,%ax

0000000000007a80 <_ZN4core9panicking15panic_no_unwind17h824ddc2779a445e2E>:
    7a80:	48 83 ec 58          	sub    $0x58,%rsp
    7a84:	48 8d 05 b5 a7 04 00 	lea    0x4a7b5(%rip),%rax        # 52240 <_ZN6object3elf12ELF_NOTE_GNU17hbaeef7f10d5c5125E+0xee8>
    7a8b:	48 89 44 24 28       	mov    %rax,0x28(%rsp)
    7a90:	48 c7 44 24 30 01 00 	movq   $0x1,0x30(%rsp)
    7a97:	00 00 
    7a99:	48 c7 44 24 38 00 00 	movq   $0x0,0x38(%rsp)
    7aa0:	00 00 
    7aa2:	48 8d 05 87 e1 03 00 	lea    0x3e187(%rip),%rax        # 45c30 <str.5+0x2e60>
    7aa9:	48 89 44 24 48       	mov    %rax,0x48(%rsp)
    7aae:	48 c7 44 24 50 00 00 	movq   $0x0,0x50(%rsp)
    7ab5:	00 00 
    7ab7:	48 89 04 24          	mov    %rax,(%rsp)
    7abb:	48 8d 05 a6 a7 04 00 	lea    0x4a7a6(%rip),%rax        # 52268 <_ZN6object3elf12ELF_NOTE_GNU17hbaeef7f10d5c5125E+0xf10>
    7ac2:	48 89 44 24 08       	mov    %rax,0x8(%rsp)
    7ac7:	48 8d 44 24 28       	lea    0x28(%rsp),%rax
    7acc:	48 89 44 24 10       	mov    %rax,0x10(%rsp)
    7ad1:	48 8d 05 78 a7 04 00 	lea    0x4a778(%rip),%rax        # 52250 <_ZN6object3elf12ELF_NOTE_GNU17hbaeef7f10d5c5125E+0xef8>
    7ad8:	48 89 44 24 18       	mov    %rax,0x18(%rsp)
    7add:	c6 44 24 20 00       	movb   $0x0,0x20(%rsp)
    7ae2:	48 89 e7             	mov    %rsp,%rdi
    7ae5:	ff 15 b5 b0 04 00    	call   *0x4b0b5(%rip)        # 52ba0 <_GLOBAL_OFFSET_TABLE_+0x2a8>
    7aeb:	eb 06                	jmp    7af3 <_ZN4core9panicking15panic_no_unwind17h824ddc2779a445e2E+0x73>
    7aed:	ff 15 95 b1 04 00    	call   *0x4b195(%rip)        # 52c88 <_GLOBAL_OFFSET_TABLE_+0x390>
    7af3:	0f 0b                	ud2
    7af5:	66 2e 0f 1f 84 00 00 	cs nopw 0x0(%rax,%rax,1)
    7afc:	00 00 00 
    7aff:	90                   	nop

0000000000007b00 <_ZN4core9panicking9panic_fmt17h8d17ca1073d9a733E>:
    7b00:	48 83 ec 28          	sub    $0x28,%rsp
    7b04:	48 8d 05 25 e1 03 00 	lea    0x3e125(%rip),%rax        # 45c30 <str.5+0x2e60>
    7b0b:	48 89 04 24          	mov    %rax,(%rsp)
    7b0f:	48 8d 05 52 a7 04 00 	lea    0x4a752(%rip),%rax        # 52268 <_ZN6object3elf12ELF_NOTE_GNU17hbaeef7f10d5c5125E+0xf10>
    7b16:	48 89 44 24 08       	mov    %rax,0x8(%rsp)
    7b1b:	48 89 7c 24 10       	mov    %rdi,0x10(%rsp)
    7b20:	48 89 74 24 18       	mov    %rsi,0x18(%rsp)
    7b25:	c6 44 24 20 01       	movb   $0x1,0x20(%rsp)
    7b2a:	48 89 e7             	mov    %rsp,%rdi
    7b2d:	ff 15 6d b0 04 00    	call   *0x4b06d(%rip)        # 52ba0 <_GLOBAL_OFFSET_TABLE_+0x2a8>
    7b33:	0f 0b                	ud2
    7b35:	66 2e 0f 1f 84 00 00 	cs nopw 0x0(%rax,%rax,1)
    7b3c:	00 00 00 
    7b3f:	90                   	nop

0000000000007b40 <_ZN4core6result13unwrap_failed17hfaddf24b248137d3E>:
    7b40:	48 83 ec 78          	sub    $0x78,%rsp
    7b44:	48 89 7c 24 08       	mov    %rdi,0x8(%rsp)
    7b49:	48 89 74 24 10       	mov    %rsi,0x10(%rsp)
    7b4e:	48 89 54 24 18       	mov    %rdx,0x18(%rsp)
    7b53:	48 89 4c 24 20       	mov    %rcx,0x20(%rsp)
    7b58:	48 8d 44 24 08       	lea    0x8(%rsp),%rax
    7b5d:	48 89 44 24 28       	mov    %rax,0x28(%rsp)
    7b62:	48 8d 05 57 6c 03 00 	lea    0x36c57(%rip),%rax        # 3e7c0 <_ZN44_$LT$$RF$T$u20$as$u20$core..fmt..Display$GT$3fmt17h99ba872fd0b5777aE>
    7b69:	48 89 44 24 30       	mov    %rax,0x30(%rsp)
    7b6e:	48 8d 44 24 18       	lea    0x18(%rsp),%rax
    7b73:	48 89 44 24 38       	mov    %rax,0x38(%rsp)
    7b78:	48 8d 05 31 6b 03 00 	lea    0x36b31(%rip),%rax        # 3e6b0 <_ZN42_$LT$$RF$T$u20$as$u20$core..fmt..Debug$GT$3fmt17hd336a520f3b7b7ecE>
    7b7f:	48 89 44 24 40       	mov    %rax,0x40(%rsp)
    7b84:	48 8d 05 9d a7 04 00 	lea    0x4a79d(%rip),%rax        # 52328 <_ZN6object3elf12ELF_NOTE_GNU17hbaeef7f10d5c5125E+0xfd0>
    7b8b:	48 89 44 24 48       	mov    %rax,0x48(%rsp)
    7b90:	48 c7 44 24 50 02 00 	movq   $0x2,0x50(%rsp)
    7b97:	00 00 
    7b99:	48 c7 44 24 58 00 00 	movq   $0x0,0x58(%rsp)
    7ba0:	00 00 
    7ba2:	48 8d 44 24 28       	lea    0x28(%rsp),%rax
    7ba7:	48 89 44 24 68       	mov    %rax,0x68(%rsp)
    7bac:	48 c7 44 24 70 02 00 	movq   $0x2,0x70(%rsp)
    7bb3:	00 00 
    7bb5:	48 8d 7c 24 48       	lea    0x48(%rsp),%rdi
    7bba:	4c 89 c6             	mov    %r8,%rsi
    7bbd:	ff 15 9d b0 04 00    	call   *0x4b09d(%rip)        # 52c60 <_GLOBAL_OFFSET_TABLE_+0x368>
    7bc3:	0f 0b                	ud2
    7bc5:	66 2e 0f 1f 84 00 00 	cs nopw 0x0(%rax,%rax,1)
    7bcc:	00 00 00 
    7bcf:	90                   	nop

0000000000007bd0 <_ZN4core5slice5index26slice_start_index_len_fail17h8ba017b5b4f908d4E>:
    7bd0:	50                   	push   %rax
    7bd1:	ff 15 29 b2 04 00    	call   *0x4b229(%rip)        # 52e00 <_GLOBAL_OFFSET_TABLE_+0x508>
    7bd7:	0f 0b                	ud2
    7bd9:	0f 1f 80 00 00 00 00 	nopl   0x0(%rax)

0000000000007be0 <_ZN4core5slice5index24slice_end_index_len_fail17h91a0a240f8402753E>:
    7be0:	50                   	push   %rax
    7be1:	ff 15 39 b2 04 00    	call   *0x4b239(%rip)        # 52e20 <_GLOBAL_OFFSET_TABLE_+0x528>
    7be7:	0f 0b                	ud2
    7be9:	0f 1f 80 00 00 00 00 	nopl   0x0(%rax)

0000000000007bf0 <_ZN4core5slice5index22slice_index_order_fail17he0fe8999ce1d3d76E>:
    7bf0:	50                   	push   %rax
    7bf1:	ff 15 41 b3 04 00    	call   *0x4b341(%rip)        # 52f38 <_GLOBAL_OFFSET_TABLE_+0x640>
    7bf7:	0f 0b                	ud2
    7bf9:	0f 1f 80 00 00 00 00 	nopl   0x0(%rax)

0000000000007c00 <_ZN4core5slice29_$LT$impl$u20$$u5b$T$u5d$$GT$15copy_from_slice17len_mismatch_fail17h1d6fbba0a44d06aeE>:
    7c00:	48 83 ec 68          	sub    $0x68,%rsp
    7c04:	48 89 7c 24 08       	mov    %rdi,0x8(%rsp)
    7c09:	48 89 74 24 10       	mov    %rsi,0x10(%rsp)
    7c0e:	48 8d 44 24 10       	lea    0x10(%rsp),%rax
    7c13:	48 89 44 24 18       	mov    %rax,0x18(%rsp)
    7c18:	48 8d 05 31 68 03 00 	lea    0x36831(%rip),%rax        # 3e450 <_ZN4core3fmt3num3imp52_$LT$impl$u20$core..fmt..Display$u20$for$u20$u64$GT$3fmt17hde3000029be65f71E>
    7c1f:	48 89 44 24 20       	mov    %rax,0x20(%rsp)
    7c24:	48 8d 4c 24 08       	lea    0x8(%rsp),%rcx
    7c29:	48 89 4c 24 28       	mov    %rcx,0x28(%rsp)
    7c2e:	48 89 44 24 30       	mov    %rax,0x30(%rsp)
    7c33:	48 8d 05 4e a8 04 00 	lea    0x4a84e(%rip),%rax        # 52488 <_ZN6object3elf12ELF_NOTE_GNU17hbaeef7f10d5c5125E+0x1130>
    7c3a:	48 89 44 24 38       	mov    %rax,0x38(%rsp)
    7c3f:	48 c7 44 24 40 03 00 	movq   $0x3,0x40(%rsp)
    7c46:	00 00 
    7c48:	48 c7 44 24 48 00 00 	movq   $0x0,0x48(%rsp)
    7c4f:	00 00 
    7c51:	48 8d 44 24 18       	lea    0x18(%rsp),%rax
    7c56:	48 89 44 24 58       	mov    %rax,0x58(%rsp)
    7c5b:	48 c7 44 24 60 02 00 	movq   $0x2,0x60(%rsp)
    7c62:	00 00 
    7c64:	48 8d 7c 24 38       	lea    0x38(%rsp),%rdi
    7c69:	48 89 d6             	mov    %rdx,%rsi
    7c6c:	ff 15 ee af 04 00    	call   *0x4afee(%rip)        # 52c60 <_GLOBAL_OFFSET_TABLE_+0x368>
    7c72:	0f 0b                	ud2
    7c74:	66 2e 0f 1f 84 00 00 	cs nopw 0x0(%rax,%rax,1)
    7c7b:	00 00 00 
    7c7e:	66 90                	xchg   %ax,%ax

0000000000007c80 <_ZN4core3str6traits23str_index_overflow_fail17hd88e99cc418e8f48E>:
    7c80:	48 83 ec 38          	sub    $0x38,%rsp
    7c84:	48 89 fe             	mov    %rdi,%rsi
    7c87:	48 8d 05 2a a8 04 00 	lea    0x4a82a(%rip),%rax        # 524b8 <_ZN6object3elf12ELF_NOTE_GNU17hbaeef7f10d5c5125E+0x1160>
    7c8e:	48 89 44 24 08       	mov    %rax,0x8(%rsp)
    7c93:	48 c7 44 24 10 01 00 	movq   $0x1,0x10(%rsp)
    7c9a:	00 00 
    7c9c:	48 c7 44 24 18 00 00 	movq   $0x0,0x18(%rsp)
    7ca3:	00 00 
    7ca5:	48 8d 05 84 df 03 00 	lea    0x3df84(%rip),%rax        # 45c30 <str.5+0x2e60>
    7cac:	48 89 44 24 28       	mov    %rax,0x28(%rsp)
    7cb1:	48 c7 44 24 30 00 00 	movq   $0x0,0x30(%rsp)
    7cb8:	00 00 
    7cba:	48 8d 7c 24 08       	lea    0x8(%rsp),%rdi
    7cbf:	ff 15 9b af 04 00    	call   *0x4af9b(%rip)        # 52c60 <_GLOBAL_OFFSET_TABLE_+0x368>
    7cc5:	0f 0b                	ud2
    7cc7:	66 0f 1f 84 00 00 00 	nopw   0x0(%rax,%rax,1)
    7cce:	00 00 

0000000000007cd0 <_ZN4core3str16slice_error_fail17h84ffc2c9ae1a24abE>:
    7cd0:	50                   	push   %rax
    7cd1:	ff 15 b1 b0 04 00    	call   *0x4b0b1(%rip)        # 52d88 <_GLOBAL_OFFSET_TABLE_+0x490>
    7cd7:	0f 0b                	ud2
    7cd9:	0f 1f 80 00 00 00 00 	nopl   0x0(%rax)

0000000000007ce0 <_start>:
    7ce0:	f3 0f 1e fa          	endbr64
    7ce4:	31 ed                	xor    %ebp,%ebp
    7ce6:	49 89 d1             	mov    %rdx,%r9
    7ce9:	5e                   	pop    %rsi
    7cea:	48 89 e2             	mov    %rsp,%rdx
    7ced:	48 83 e4 f0          	and    $0xfffffffffffffff0,%rsp
    7cf1:	50                   	push   %rax
    7cf2:	54                   	push   %rsp
    7cf3:	45 31 c0             	xor    %r8d,%r8d
    7cf6:	31 c9                	xor    %ecx,%ecx
    7cf8:	48 8d 3d 71 15 00 00 	lea    0x1571(%rip),%rdi        # 9270 <main>
    7cff:	ff 15 7b ac 04 00    	call   *0x4ac7b(%rip)        # 52980 <__libc_start_main@GLIBC_2.34>
    7d05:	f4                   	hlt
    7d06:	66 2e 0f 1f 84 00 00 	cs nopw 0x0(%rax,%rax,1)
    7d0d:	00 00 00 

0000000000007d10 <deregister_tm_clones>:
    7d10:	48 8d 3d 19 b3 04 00 	lea    0x4b319(%rip),%rdi        # 53030 <__TMC_END__>
    7d17:	48 8d 05 12 b3 04 00 	lea    0x4b312(%rip),%rax        # 53030 <__TMC_END__>
    7d1e:	48 39 f8             	cmp    %rdi,%rax
    7d21:	74 15                	je     7d38 <deregister_tm_clones+0x28>
    7d23:	48 8b 05 86 ac 04 00 	mov    0x4ac86(%rip),%rax        # 529b0 <_ITM_deregisterTMCloneTable@Base>
    7d2a:	48 85 c0             	test   %rax,%rax
    7d2d:	74 09                	je     7d38 <deregister_tm_clones+0x28>
    7d2f:	ff e0                	jmp    *%rax
    7d31:	0f 1f 80 00 00 00 00 	nopl   0x0(%rax)
    7d38:	c3                   	ret
    7d39:	0f 1f 80 00 00 00 00 	nopl   0x0(%rax)

0000000000007d40 <register_tm_clones>:
    7d40:	48 8d 3d e9 b2 04 00 	lea    0x4b2e9(%rip),%rdi        # 53030 <__TMC_END__>
    7d47:	48 8d 35 e2 b2 04 00 	lea    0x4b2e2(%rip),%rsi        # 53030 <__TMC_END__>
    7d4e:	48 29 fe             	sub    %rdi,%rsi
    7d51:	48 89 f0             	mov    %rsi,%rax
    7d54:	48 c1 ee 3f          	shr    $0x3f,%rsi
    7d58:	48 c1 f8 03          	sar    $0x3,%rax
    7d5c:	48 01 c6             	add    %rax,%rsi
    7d5f:	48 d1 fe             	sar    %rsi
    7d62:	74 14                	je     7d78 <register_tm_clones+0x38>
    7d64:	48 8b 05 f5 b1 04 00 	mov    0x4b1f5(%rip),%rax        # 52f60 <_ITM_registerTMCloneTable@Base>
    7d6b:	48 85 c0             	test   %rax,%rax
    7d6e:	74 08                	je     7d78 <register_tm_clones+0x38>
    7d70:	ff e0                	jmp    *%rax
    7d72:	66 0f 1f 44 00 00    	nopw   0x0(%rax,%rax,1)
    7d78:	c3                   	ret
    7d79:	0f 1f 80 00 00 00 00 	nopl   0x0(%rax)

0000000000007d80 <__do_global_dtors_aux>:
    7d80:	f3 0f 1e fa          	endbr64
    7d84:	80 3d a5 b2 04 00 00 	cmpb   $0x0,0x4b2a5(%rip)        # 53030 <__TMC_END__>
    7d8b:	75 33                	jne    7dc0 <__do_global_dtors_aux+0x40>
    7d8d:	55                   	push   %rbp
    7d8e:	48 83 3d 32 b2 04 00 	cmpq   $0x0,0x4b232(%rip)        # 52fc8 <__cxa_finalize@GLIBC_2.2.5>
    7d95:	00 
    7d96:	48 89 e5             	mov    %rsp,%rbp
    7d99:	74 0d                	je     7da8 <__do_global_dtors_aux+0x28>
    7d9b:	48 8b 3d 5e b2 04 00 	mov    0x4b25e(%rip),%rdi        # 53000 <__dso_handle>
    7da2:	ff 15 20 b2 04 00    	call   *0x4b220(%rip)        # 52fc8 <__cxa_finalize@GLIBC_2.2.5>
    7da8:	e8 63 ff ff ff       	call   7d10 <deregister_tm_clones>
    7dad:	c6 05 7c b2 04 00 01 	movb   $0x1,0x4b27c(%rip)        # 53030 <__TMC_END__>
    7db4:	5d                   	pop    %rbp
    7db5:	c3                   	ret
    7db6:	66 2e 0f 1f 84 00 00 	cs nopw 0x0(%rax,%rax,1)
    7dbd:	00 00 00 
    7dc0:	c3                   	ret
    7dc1:	66 66 2e 0f 1f 84 00 	data16 cs nopw 0x0(%rax,%rax,1)
    7dc8:	00 00 00 00 
    7dcc:	0f 1f 40 00          	nopl   0x0(%rax)

0000000000007dd0 <frame_dummy>:
    7dd0:	f3 0f 1e fa          	endbr64
    7dd4:	e9 67 ff ff ff       	jmp    7d40 <register_tm_clones>
    7dd9:	0f 1f 80 00 00 00 00 	nopl   0x0(%rax)

0000000000007de0 <_ZN4core3ptr54drop_in_place$LT$alloc..raw_vec..RawVec$LT$u32$GT$$GT$17hfd9f94ab588b30baE.llvm.11503904930727971934>:
    7de0:	48 8b 77 08          	mov    0x8(%rdi),%rsi
    7de4:	48 85 f6             	test   %rsi,%rsi
    7de7:	74 12                	je     7dfb <_ZN4core3ptr54drop_in_place$LT$alloc..raw_vec..RawVec$LT$u32$GT$$GT$17hfd9f94ab588b30baE.llvm.11503904930727971934+0x1b>
    7de9:	48 8b 3f             	mov    (%rdi),%rdi
    7dec:	48 c1 e6 02          	shl    $0x2,%rsi
    7df0:	ba 04 00 00 00       	mov    $0x4,%edx
    7df5:	ff 25 cd ad 04 00    	jmp    *0x4adcd(%rip)        # 52bc8 <_GLOBAL_OFFSET_TABLE_+0x2d0>
    7dfb:	c3                   	ret
    7dfc:	0f 1f 40 00          	nopl   0x0(%rax)

0000000000007e00 <_ZN4core3ptr73drop_in_place$LT$alloc..vec..Vec$LT$alloc..slice..merge_sort..Run$GT$$GT$17h811d4428cb230e5bE>:
    7e00:	48 85 f6             	test   %rsi,%rsi
    7e03:	74 0f                	je     7e14 <_ZN4core3ptr73drop_in_place$LT$alloc..vec..Vec$LT$alloc..slice..merge_sort..Run$GT$$GT$17h811d4428cb230e5bE+0x14>
    7e05:	48 c1 e6 04          	shl    $0x4,%rsi
    7e09:	ba 08 00 00 00       	mov    $0x8,%edx
    7e0e:	ff 25 b4 ad 04 00    	jmp    *0x4adb4(%rip)        # 52bc8 <_GLOBAL_OFFSET_TABLE_+0x2d0>
    7e14:	c3                   	ret
    7e15:	66 2e 0f 1f 84 00 00 	cs nopw 0x0(%rax,%rax,1)
    7e1c:	00 00 00 
    7e1f:	90                   	nop

0000000000007e20 <_ZN5alloc5slice10merge_sort17hc8ddbea8c2553588E>:
    7e20:	55                   	push   %rbp
    7e21:	41 57                	push   %r15
    7e23:	41 56                	push   %r14
    7e25:	41 55                	push   %r13
    7e27:	41 54                	push   %r12
    7e29:	53                   	push   %rbx
    7e2a:	48 81 ec b8 00 00 00 	sub    $0xb8,%rsp
    7e31:	49 89 ff             	mov    %rdi,%r15
    7e34:	48 83 fe 15          	cmp    $0x15,%rsi
    7e38:	48 89 74 24 08       	mov    %rsi,0x8(%rsp)
    7e3d:	73 2b                	jae    7e6a <_ZN5alloc5slice10merge_sort17hc8ddbea8c2553588E+0x4a>
    7e3f:	48 83 fe 02          	cmp    $0x2,%rsi
    7e43:	0f 82 46 07 00 00    	jb     858f <_ZN5alloc5slice10merge_sort17hc8ddbea8c2553588E+0x76f>
    7e49:	48 8b 4c 24 08       	mov    0x8(%rsp),%rcx
    7e4e:	48 8d 41 ff          	lea    -0x1(%rcx),%rax
    7e52:	4d 8d 04 8f          	lea    (%r15,%rcx,4),%r8
    7e56:	49 83 c0 fc          	add    $0xfffffffffffffffc,%r8
    7e5a:	49 8d 0c 8f          	lea    (%r15,%rcx,4),%rcx
    7e5e:	48 c7 c5 fe ff ff ff 	mov    $0xfffffffffffffffe,%rbp
    7e65:	e9 57 07 00 00       	jmp    85c1 <_ZN5alloc5slice10merge_sort17hc8ddbea8c2553588E+0x7a1>
    7e6a:	31 db                	xor    %ebx,%ebx
    7e6c:	48 89 f0             	mov    %rsi,%rax
    7e6f:	48 c1 e8 3e          	shr    $0x3e,%rax
    7e73:	0f 94 c0             	sete   %al
    7e76:	0f 85 5a 08 00 00    	jne    86d6 <_ZN5alloc5slice10merge_sort17hc8ddbea8c2553588E+0x8b6>
    7e7c:	48 89 f5             	mov    %rsi,%rbp
    7e7f:	48 d1 ed             	shr    %rbp
    7e82:	4c 8d 34 ad 00 00 00 	lea    0x0(,%rbp,4),%r14
    7e89:	00 
    7e8a:	88 c3                	mov    %al,%bl
    7e8c:	48 c1 e3 02          	shl    $0x2,%rbx
    7e90:	4d 85 f6             	test   %r14,%r14
    7e93:	0f 84 91 07 00 00    	je     862a <_ZN5alloc5slice10merge_sort17hc8ddbea8c2553588E+0x80a>
    7e99:	4c 89 f7             	mov    %r14,%rdi
    7e9c:	48 89 de             	mov    %rbx,%rsi
    7e9f:	ff 15 d3 ac 04 00    	call   *0x4acd3(%rip)        # 52b78 <_GLOBAL_OFFSET_TABLE_+0x280>
    7ea5:	48 85 c0             	test   %rax,%rax
    7ea8:	0f 84 88 07 00 00    	je     8636 <_ZN5alloc5slice10merge_sort17hc8ddbea8c2553588E+0x816>
    7eae:	48 89 44 24 50       	mov    %rax,0x50(%rsp)
    7eb3:	48 89 6c 24 58       	mov    %rbp,0x58(%rsp)
    7eb8:	48 c7 44 24 60 00 00 	movq   $0x0,0x60(%rsp)
    7ebf:	00 00 
    7ec1:	48 c7 44 24 18 08 00 	movq   $0x8,0x18(%rsp)
    7ec8:	00 00 
    7eca:	49 8d 47 fc          	lea    -0x4(%r15),%rax
    7ece:	48 89 44 24 38       	mov    %rax,0x38(%rsp)
    7ed3:	66 0f ef c0          	pxor   %xmm0,%xmm0
    7ed7:	f3 0f 7f 44 24 20    	movdqu %xmm0,0x20(%rsp)
    7edd:	49 8d 47 08          	lea    0x8(%r15),%rax
    7ee1:	48 89 84 24 80 00 00 	mov    %rax,0x80(%rsp)
    7ee8:	00 
    7ee9:	49 8d 47 f0          	lea    -0x10(%r15),%rax
    7eed:	48 89 44 24 68       	mov    %rax,0x68(%rsp)
    7ef2:	49 8d 47 f8          	lea    -0x8(%r15),%rax
    7ef6:	48 89 44 24 78       	mov    %rax,0x78(%rsp)
    7efb:	49 8d 47 04          	lea    0x4(%r15),%rax
    7eff:	48 89 44 24 70       	mov    %rax,0x70(%rsp)
    7f04:	45 31 ed             	xor    %r13d,%r13d
    7f07:	4c 8b 64 24 08       	mov    0x8(%rsp),%r12
    7f0c:	4c 89 e0             	mov    %r12,%rax
    7f0f:	4c 89 7c 24 30       	mov    %r15,0x30(%rsp)
    7f14:	eb 18                	jmp    7f2e <_ZN5alloc5slice10merge_sort17hc8ddbea8c2553588E+0x10e>
    7f16:	41 bd 02 00 00 00    	mov    $0x2,%r13d
    7f1c:	0f 1f 40 00          	nopl   0x0(%rax)
    7f20:	48 8b 44 24 10       	mov    0x10(%rsp),%rax
    7f25:	48 85 c0             	test   %rax,%rax
    7f28:	0f 84 2a 06 00 00    	je     8558 <_ZN5alloc5slice10merge_sort17hc8ddbea8c2553588E+0x738>
    7f2e:	48 83 f8 01          	cmp    $0x1,%rax
    7f32:	0f 84 88 00 00 00    	je     7fc0 <_ZN5alloc5slice10merge_sort17hc8ddbea8c2553588E+0x1a0>
    7f38:	48 89 c6             	mov    %rax,%rsi
    7f3b:	41 8b 4c 87 f8       	mov    -0x8(%r15,%rax,4),%ecx
    7f40:	41 3b 4c 87 fc       	cmp    -0x4(%r15,%rax,4),%ecx
    7f45:	0f 83 95 00 00 00    	jae    7fe0 <_ZN5alloc5slice10merge_sort17hc8ddbea8c2553588E+0x1c0>
    7f4b:	4c 8d 14 b5 00 00 00 	lea    0x0(,%rsi,4),%r10
    7f52:	00 
    7f53:	48 8b 84 24 80 00 00 	mov    0x80(%rsp),%rax
    7f5a:	00 
    7f5b:	48 8d 3c b0          	lea    (%rax,%rsi,4),%rdi
    7f5f:	48 8b 44 24 78       	mov    0x78(%rsp),%rax
    7f64:	48 8d 14 b0          	lea    (%rax,%rsi,4),%rdx
    7f68:	bb 02 00 00 00       	mov    $0x2,%ebx
    7f6d:	0f 1f 00             	nopl   (%rax)
    7f70:	48 89 dd             	mov    %rbx,%rbp
    7f73:	49 89 ff             	mov    %rdi,%r15
    7f76:	49 89 d3             	mov    %rdx,%r11
    7f79:	49 89 f6             	mov    %rsi,%r14
    7f7c:	49 29 de             	sub    %rbx,%r14
    7f7f:	74 16                	je     7f97 <_ZN5alloc5slice10merge_sort17hc8ddbea8c2553588E+0x177>
    7f81:	41 8b 47 ec          	mov    -0x14(%r15),%eax
    7f85:	48 8d 5d 01          	lea    0x1(%rbp),%rbx
    7f89:	49 8d 7f fc          	lea    -0x4(%r15),%rdi
    7f8d:	49 8d 53 fc          	lea    -0x4(%r11),%rdx
    7f91:	39 c8                	cmp    %ecx,%eax
    7f93:	89 c1                	mov    %eax,%ecx
    7f95:	72 d9                	jb     7f70 <_ZN5alloc5slice10merge_sort17hc8ddbea8c2553588E+0x150>
    7f97:	4c 39 f6             	cmp    %r14,%rsi
    7f9a:	0f 82 10 07 00 00    	jb     86b0 <_ZN5alloc5slice10merge_sort17hc8ddbea8c2553588E+0x890>
    7fa0:	4c 8b 64 24 08       	mov    0x8(%rsp),%r12
    7fa5:	4c 39 e6             	cmp    %r12,%rsi
    7fa8:	0f 87 f9 06 00 00    	ja     86a7 <_ZN5alloc5slice10merge_sort17hc8ddbea8c2553588E+0x887>
    7fae:	48 83 fd 02          	cmp    $0x2,%rbp
    7fb2:	73 77                	jae    802b <_ZN5alloc5slice10merge_sort17hc8ddbea8c2553588E+0x20b>
    7fb4:	4c 8b 7c 24 30       	mov    0x30(%rsp),%r15
    7fb9:	e9 2a 01 00 00       	jmp    80e8 <_ZN5alloc5slice10merge_sort17hc8ddbea8c2553588E+0x2c8>
    7fbe:	66 90                	xchg   %ax,%ax
    7fc0:	bd 01 00 00 00       	mov    $0x1,%ebp
    7fc5:	31 c0                	xor    %eax,%eax
    7fc7:	48 89 44 24 10       	mov    %rax,0x10(%rsp)
    7fcc:	4c 3b 6c 24 20       	cmp    0x20(%rsp),%r13
    7fd1:	0f 84 25 02 00 00    	je     81fc <_ZN5alloc5slice10merge_sort17hc8ddbea8c2553588E+0x3dc>
    7fd7:	e9 32 02 00 00       	jmp    820e <_ZN5alloc5slice10merge_sort17hc8ddbea8c2553588E+0x3ee>
    7fdc:	0f 1f 40 00          	nopl   0x0(%rax)
    7fe0:	48 8d 46 fd          	lea    -0x3(%rsi),%rax
    7fe4:	bd 01 00 00 00       	mov    $0x1,%ebp
    7fe9:	0f 1f 80 00 00 00 00 	nopl   0x0(%rax)
    7ff0:	48 83 f8 ff          	cmp    $0xffffffffffffffff,%rax
    7ff4:	74 1b                	je     8011 <_ZN5alloc5slice10merge_sort17hc8ddbea8c2553588E+0x1f1>
    7ff6:	41 8b 14 87          	mov    (%r15,%rax,4),%edx
    7ffa:	48 ff c5             	inc    %rbp
    7ffd:	48 ff c8             	dec    %rax
    8000:	39 ca                	cmp    %ecx,%edx
    8002:	89 d1                	mov    %edx,%ecx
    8004:	73 ea                	jae    7ff0 <_ZN5alloc5slice10merge_sort17hc8ddbea8c2553588E+0x1d0>
    8006:	49 89 f6             	mov    %rsi,%r14
    8009:	49 29 ee             	sub    %rbp,%r14
    800c:	e9 d7 00 00 00       	jmp    80e8 <_ZN5alloc5slice10merge_sort17hc8ddbea8c2553588E+0x2c8>
    8011:	31 c0                	xor    %eax,%eax
    8013:	48 89 44 24 10       	mov    %rax,0x10(%rsp)
    8018:	48 89 f5             	mov    %rsi,%rbp
    801b:	4c 3b 6c 24 20       	cmp    0x20(%rsp),%r13
    8020:	0f 84 d6 01 00 00    	je     81fc <_ZN5alloc5slice10merge_sort17hc8ddbea8c2553588E+0x3dc>
    8026:	e9 e3 01 00 00       	jmp    820e <_ZN5alloc5slice10merge_sort17hc8ddbea8c2553588E+0x3ee>
    802b:	49 89 e8             	mov    %rbp,%r8
    802e:	49 d1 e8             	shr    %r8
    8031:	48 83 fd 10          	cmp    $0x10,%rbp
    8035:	73 04                	jae    803b <_ZN5alloc5slice10merge_sort17hc8ddbea8c2553588E+0x21b>
    8037:	31 db                	xor    %ebx,%ebx
    8039:	eb 7b                	jmp    80b6 <_ZN5alloc5slice10merge_sort17hc8ddbea8c2553588E+0x296>
    803b:	4c 89 c3             	mov    %r8,%rbx
    803e:	48 83 e3 f8          	and    $0xfffffffffffffff8,%rbx
    8042:	48 8b 44 24 68       	mov    0x68(%rsp),%rax
    8047:	4a 8d 14 10          	lea    (%rax,%r10,1),%rdx
    804b:	4d 89 c1             	mov    %r8,%r9
    804e:	49 83 e1 f8          	and    $0xfffffffffffffff8,%r9
    8052:	31 c9                	xor    %ecx,%ecx
    8054:	66 66 66 2e 0f 1f 84 	data16 data16 cs nopw 0x0(%rax,%rax,1)
    805b:	00 00 00 00 00 
    8060:	f3 41 0f 6f 44 8f f0 	movdqu -0x10(%r15,%rcx,4),%xmm0
    8067:	f3 41 0f 6f 0c 8f    	movdqu (%r15,%rcx,4),%xmm1
    806d:	f3 0f 6f 52 f0       	movdqu -0x10(%rdx),%xmm2
    8072:	f3 0f 6f 1a          	movdqu (%rdx),%xmm3
    8076:	66 0f 70 db 1b       	pshufd $0x1b,%xmm3,%xmm3
    807b:	66 0f 70 d2 1b       	pshufd $0x1b,%xmm2,%xmm2
    8080:	f3 41 0f 7f 5c 8f f0 	movdqu %xmm3,-0x10(%r15,%rcx,4)
    8087:	f3 41 0f 7f 14 8f    	movdqu %xmm2,(%r15,%rcx,4)
    808d:	66 0f 70 c0 1b       	pshufd $0x1b,%xmm0,%xmm0
    8092:	f3 0f 7f 02          	movdqu %xmm0,(%rdx)
    8096:	66 0f 70 c1 1b       	pshufd $0x1b,%xmm1,%xmm0
    809b:	f3 0f 7f 42 f0       	movdqu %xmm0,-0x10(%rdx)
    80a0:	48 83 c1 08          	add    $0x8,%rcx
    80a4:	48 83 c2 e0          	add    $0xffffffffffffffe0,%rdx
    80a8:	49 39 c9             	cmp    %rcx,%r9
    80ab:	75 b3                	jne    8060 <_ZN5alloc5slice10merge_sort17hc8ddbea8c2553588E+0x240>
    80ad:	49 39 d8             	cmp    %rbx,%r8
    80b0:	0f 84 fe fe ff ff    	je     7fb4 <_ZN5alloc5slice10merge_sort17hc8ddbea8c2553588E+0x194>
    80b6:	49 8d 0c 9b          	lea    (%r11,%rbx,4),%rcx
    80ba:	49 f7 d8             	neg    %r8
    80bd:	48 f7 db             	neg    %rbx
    80c0:	4c 03 54 24 38       	add    0x38(%rsp),%r10
    80c5:	4c 8b 7c 24 30       	mov    0x30(%rsp),%r15
    80ca:	66 0f 1f 44 00 00    	nopw   0x0(%rax,%rax,1)
    80d0:	8b 01                	mov    (%rcx),%eax
    80d2:	41 8b 14 9a          	mov    (%r10,%rbx,4),%edx
    80d6:	89 11                	mov    %edx,(%rcx)
    80d8:	41 89 04 9a          	mov    %eax,(%r10,%rbx,4)
    80dc:	48 83 c1 04          	add    $0x4,%rcx
    80e0:	48 ff cb             	dec    %rbx
    80e3:	49 39 d8             	cmp    %rbx,%r8
    80e6:	75 e8                	jne    80d0 <_ZN5alloc5slice10merge_sort17hc8ddbea8c2553588E+0x2b0>
    80e8:	4d 85 f6             	test   %r14,%r14
    80eb:	0f 84 ff 00 00 00    	je     81f0 <_ZN5alloc5slice10merge_sort17hc8ddbea8c2553588E+0x3d0>
    80f1:	48 83 fd 09          	cmp    $0x9,%rbp
    80f5:	0f 87 f5 00 00 00    	ja     81f0 <_ZN5alloc5slice10merge_sort17hc8ddbea8c2553588E+0x3d0>
    80fb:	4c 39 e6             	cmp    %r12,%rsi
    80fe:	0f 87 bb 05 00 00    	ja     86bf <_ZN5alloc5slice10merge_sort17hc8ddbea8c2553588E+0x89f>
    8104:	48 8b 44 24 38       	mov    0x38(%rsp),%rax
    8109:	4c 8d 0c b0          	lea    (%rax,%rsi,4),%r9
    810d:	48 8b 44 24 70       	mov    0x70(%rsp),%rax
    8112:	4a 8d 14 b0          	lea    (%rax,%r14,4),%rdx
    8116:	4c 8d 46 fd          	lea    -0x3(%rsi),%r8
    811a:	66 0f 1f 44 00 00    	nopw   0x0(%rax,%rax,1)
    8120:	49 8d 7e ff          	lea    -0x1(%r14),%rdi
    8124:	48 89 f5             	mov    %rsi,%rbp
    8127:	48 29 fd             	sub    %rdi,%rbp
    812a:	0f 82 68 05 00 00    	jb     8698 <_ZN5alloc5slice10merge_sort17hc8ddbea8c2553588E+0x878>
    8130:	48 83 fd 02          	cmp    $0x2,%rbp
    8134:	0f 82 7e 00 00 00    	jb     81b8 <_ZN5alloc5slice10merge_sort17hc8ddbea8c2553588E+0x398>
    813a:	49 8d 0c bf          	lea    (%r15,%rdi,4),%rcx
    813e:	44 8b 11             	mov    (%rcx),%r10d
    8141:	8b 41 04             	mov    0x4(%rcx),%eax
    8144:	41 39 c2             	cmp    %eax,%r10d
    8147:	73 6f                	jae    81b8 <_ZN5alloc5slice10merge_sort17hc8ddbea8c2553588E+0x398>
    8149:	48 8d 59 04          	lea    0x4(%rcx),%rbx
    814d:	89 01                	mov    %eax,(%rcx)
    814f:	48 83 fd 03          	cmp    $0x3,%rbp
    8153:	72 5b                	jb     81b0 <_ZN5alloc5slice10merge_sort17hc8ddbea8c2553588E+0x390>
    8155:	8b 41 08             	mov    0x8(%rcx),%eax
    8158:	41 39 c2             	cmp    %eax,%r10d
    815b:	73 53                	jae    81b0 <_ZN5alloc5slice10merge_sort17hc8ddbea8c2553588E+0x390>
    815d:	89 03                	mov    %eax,(%rbx)
    815f:	4c 89 cb             	mov    %r9,%rbx
    8162:	48 83 fd 03          	cmp    $0x3,%rbp
    8166:	74 48                	je     81b0 <_ZN5alloc5slice10merge_sort17hc8ddbea8c2553588E+0x390>
    8168:	44 8b 59 0c          	mov    0xc(%rcx),%r11d
    816c:	4c 89 c0             	mov    %r8,%rax
    816f:	48 89 d3             	mov    %rdx,%rbx
    8172:	45 39 da             	cmp    %r11d,%r10d
    8175:	73 23                	jae    819a <_ZN5alloc5slice10merge_sort17hc8ddbea8c2553588E+0x37a>
    8177:	66 0f 1f 84 00 00 00 	nopw   0x0(%rax,%rax,1)
    817e:	00 00 
    8180:	44 89 1b             	mov    %r11d,(%rbx)
    8183:	49 39 c6             	cmp    %rax,%r14
    8186:	74 1b                	je     81a3 <_ZN5alloc5slice10merge_sort17hc8ddbea8c2553588E+0x383>
    8188:	44 8b 5b 08          	mov    0x8(%rbx),%r11d
    818c:	48 83 c3 04          	add    $0x4,%rbx
    8190:	48 ff c8             	dec    %rax
    8193:	45 39 da             	cmp    %r11d,%r10d
    8196:	72 e8                	jb     8180 <_ZN5alloc5slice10merge_sort17hc8ddbea8c2553588E+0x360>
    8198:	eb 16                	jmp    81b0 <_ZN5alloc5slice10merge_sort17hc8ddbea8c2553588E+0x390>
    819a:	48 83 c1 08          	add    $0x8,%rcx
    819e:	48 89 cb             	mov    %rcx,%rbx
    81a1:	eb 0d                	jmp    81b0 <_ZN5alloc5slice10merge_sort17hc8ddbea8c2553588E+0x390>
    81a3:	4c 89 cb             	mov    %r9,%rbx
    81a6:	66 2e 0f 1f 84 00 00 	cs nopw 0x0(%rax,%rax,1)
    81ad:	00 00 00 
    81b0:	44 89 13             	mov    %r10d,(%rbx)
    81b3:	4c 8b 64 24 08       	mov    0x8(%rsp),%r12
    81b8:	48 85 ff             	test   %rdi,%rdi
    81bb:	74 11                	je     81ce <_ZN5alloc5slice10merge_sort17hc8ddbea8c2553588E+0x3ae>
    81bd:	48 83 c2 fc          	add    $0xfffffffffffffffc,%rdx
    81c1:	49 89 fe             	mov    %rdi,%r14
    81c4:	48 83 fd 0a          	cmp    $0xa,%rbp
    81c8:	0f 82 52 ff ff ff    	jb     8120 <_ZN5alloc5slice10merge_sort17hc8ddbea8c2553588E+0x300>
    81ce:	48 89 7c 24 10       	mov    %rdi,0x10(%rsp)
    81d3:	4c 8b 6c 24 28       	mov    0x28(%rsp),%r13
    81d8:	4c 3b 6c 24 20       	cmp    0x20(%rsp),%r13
    81dd:	74 1d                	je     81fc <_ZN5alloc5slice10merge_sort17hc8ddbea8c2553588E+0x3dc>
    81df:	eb 2d                	jmp    820e <_ZN5alloc5slice10merge_sort17hc8ddbea8c2553588E+0x3ee>
    81e1:	66 66 66 66 66 66 2e 	data16 data16 data16 data16 data16 cs nopw 0x0(%rax,%rax,1)
    81e8:	0f 1f 84 00 00 00 00 
    81ef:	00 
    81f0:	4c 89 74 24 10       	mov    %r14,0x10(%rsp)
    81f5:	4c 3b 6c 24 20       	cmp    0x20(%rsp),%r13
    81fa:	75 12                	jne    820e <_ZN5alloc5slice10merge_sort17hc8ddbea8c2553588E+0x3ee>
    81fc:	48 8d 7c 24 18       	lea    0x18(%rsp),%rdi
    8201:	4c 89 ee             	mov    %r13,%rsi
    8204:	e8 a7 07 00 00       	call   89b0 <_ZN5alloc7raw_vec19RawVec$LT$T$C$A$GT$16reserve_for_push17h80739b325c572c25E>
    8209:	4c 8b 6c 24 28       	mov    0x28(%rsp),%r13
    820e:	48 8b 44 24 18       	mov    0x18(%rsp),%rax
    8213:	49 c1 e5 04          	shl    $0x4,%r13
    8217:	48 8b 4c 24 10       	mov    0x10(%rsp),%rcx
    821c:	4a 89 0c 28          	mov    %rcx,(%rax,%r13,1)
    8220:	4a 89 6c 28 08       	mov    %rbp,0x8(%rax,%r13,1)
    8225:	48 8b 7c 24 18       	mov    0x18(%rsp),%rdi
    822a:	4c 8b 6c 24 28       	mov    0x28(%rsp),%r13
    822f:	49 ff c5             	inc    %r13
    8232:	4c 89 6c 24 28       	mov    %r13,0x28(%rsp)
    8237:	49 83 fd 02          	cmp    $0x2,%r13
    823b:	0f 82 df fc ff ff    	jb     7f20 <_ZN5alloc5slice10merge_sort17hc8ddbea8c2553588E+0x100>
    8241:	66 66 66 66 66 66 2e 	data16 data16 data16 data16 data16 cs nopw 0x0(%rax,%rax,1)
    8248:	0f 1f 84 00 00 00 00 
    824f:	00 
    8250:	49 8d 4d ff          	lea    -0x1(%r13),%rcx
    8254:	48 c1 e1 04          	shl    $0x4,%rcx
    8258:	48 83 3c 0f 00       	cmpq   $0x0,(%rdi,%rcx,1)
    825d:	74 61                	je     82c0 <_ZN5alloc5slice10merge_sort17hc8ddbea8c2553588E+0x4a0>
    825f:	4c 89 ea             	mov    %r13,%rdx
    8262:	48 c1 e2 04          	shl    $0x4,%rdx
    8266:	48 8b 74 3a e8       	mov    -0x18(%rdx,%rdi,1),%rsi
    826b:	48 8b 44 0f 08       	mov    0x8(%rdi,%rcx,1),%rax
    8270:	48 39 c6             	cmp    %rax,%rsi
    8273:	76 4b                	jbe    82c0 <_ZN5alloc5slice10merge_sort17hc8ddbea8c2553588E+0x4a0>
    8275:	49 83 fd 03          	cmp    $0x3,%r13
    8279:	0f 82 97 fc ff ff    	jb     7f16 <_ZN5alloc5slice10merge_sort17hc8ddbea8c2553588E+0xf6>
    827f:	4d 8d 45 fd          	lea    -0x3(%r13),%r8
    8283:	4c 89 c1             	mov    %r8,%rcx
    8286:	48 c1 e1 04          	shl    $0x4,%rcx
    828a:	48 8b 4c 0f 08       	mov    0x8(%rdi,%rcx,1),%rcx
    828f:	48 8d 2c 30          	lea    (%rax,%rsi,1),%rbp
    8293:	48 39 e9             	cmp    %rbp,%rcx
    8296:	76 43                	jbe    82db <_ZN5alloc5slice10merge_sort17hc8ddbea8c2553588E+0x4bb>
    8298:	49 83 fd 04          	cmp    $0x4,%r13
    829c:	0f 82 ab 02 00 00    	jb     854d <_ZN5alloc5slice10merge_sort17hc8ddbea8c2553588E+0x72d>
    82a2:	48 01 ce             	add    %rcx,%rsi
    82a5:	48 39 74 3a c8       	cmp    %rsi,-0x38(%rdx,%rdi,1)
    82aa:	76 2f                	jbe    82db <_ZN5alloc5slice10merge_sort17hc8ddbea8c2553588E+0x4bb>
    82ac:	e9 6f fc ff ff       	jmp    7f20 <_ZN5alloc5slice10merge_sort17hc8ddbea8c2553588E+0x100>
    82b1:	66 66 66 66 66 66 2e 	data16 data16 data16 data16 data16 cs nopw 0x0(%rax,%rax,1)
    82b8:	0f 1f 84 00 00 00 00 
    82bf:	00 
    82c0:	49 83 fd 03          	cmp    $0x3,%r13
    82c4:	72 1a                	jb     82e0 <_ZN5alloc5slice10merge_sort17hc8ddbea8c2553588E+0x4c0>
    82c6:	48 8b 44 0f 08       	mov    0x8(%rdi,%rcx,1),%rax
    82cb:	4d 8d 45 fd          	lea    -0x3(%r13),%r8
    82cf:	4c 89 c1             	mov    %r8,%rcx
    82d2:	48 c1 e1 04          	shl    $0x4,%rcx
    82d6:	48 8b 4c 0f 08       	mov    0x8(%rdi,%rcx,1),%rcx
    82db:	48 39 c1             	cmp    %rax,%rcx
    82de:	72 04                	jb     82e4 <_ZN5alloc5slice10merge_sort17hc8ddbea8c2553588E+0x4c4>
    82e0:	4d 8d 45 fe          	lea    -0x2(%r13),%r8
    82e4:	49 8d 48 01          	lea    0x1(%r8),%rcx
    82e8:	4c 39 e9             	cmp    %r13,%rcx
    82eb:	0f 83 53 03 00 00    	jae    8644 <_ZN5alloc5slice10merge_sort17hc8ddbea8c2553588E+0x824>
    82f1:	48 89 c8             	mov    %rcx,%rax
    82f4:	48 c1 e0 04          	shl    $0x4,%rax
    82f8:	48 8b 14 07          	mov    (%rdi,%rax,1),%rdx
    82fc:	4c 89 c3             	mov    %r8,%rbx
    82ff:	48 c1 e3 04          	shl    $0x4,%rbx
    8303:	48 8b 6c 1f 08       	mov    0x8(%rdi,%rbx,1),%rbp
    8308:	48 8b 34 1f          	mov    (%rdi,%rbx,1),%rsi
    830c:	48 01 ee             	add    %rbp,%rsi
    830f:	49 89 f6             	mov    %rsi,%r14
    8312:	49 29 d6             	sub    %rdx,%r14
    8315:	0f 82 47 03 00 00    	jb     8662 <_ZN5alloc5slice10merge_sort17hc8ddbea8c2553588E+0x842>
    831b:	4c 39 e6             	cmp    %r12,%rsi
    831e:	0f 87 4a 03 00 00    	ja     866e <_ZN5alloc5slice10merge_sort17hc8ddbea8c2553588E+0x84e>
    8324:	48 89 ac 24 90 00 00 	mov    %rbp,0x90(%rsp)
    832b:	00 
    832c:	48 89 9c 24 98 00 00 	mov    %rbx,0x98(%rsp)
    8333:	00 
    8334:	48 89 8c 24 a8 00 00 	mov    %rcx,0xa8(%rsp)
    833b:	00 
    833c:	4c 89 84 24 b0 00 00 	mov    %r8,0xb0(%rsp)
    8343:	00 
    8344:	48 89 74 24 48       	mov    %rsi,0x48(%rsp)
    8349:	48 89 84 24 88 00 00 	mov    %rax,0x88(%rsp)
    8350:	00 
    8351:	48 8b 44 07 08       	mov    0x8(%rdi,%rax,1),%rax
    8356:	4c 89 fb             	mov    %r15,%rbx
    8359:	48 89 94 24 a0 00 00 	mov    %rdx,0xa0(%rsp)
    8360:	00 
    8361:	4d 8d 2c 97          	lea    (%r15,%rdx,4),%r13
    8365:	4c 8b 7c 24 50       	mov    0x50(%rsp),%r15
    836a:	48 8d 2c 85 00 00 00 	lea    0x0(,%rax,4),%rbp
    8371:	00 
    8372:	4c 01 ed             	add    %r13,%rbp
    8375:	4d 89 f4             	mov    %r14,%r12
    8378:	49 29 c4             	sub    %rax,%r12
    837b:	49 39 c4             	cmp    %rax,%r12
    837e:	48 89 44 24 40       	mov    %rax,0x40(%rsp)
    8383:	0f 83 87 00 00 00    	jae    8410 <_ZN5alloc5slice10merge_sort17hc8ddbea8c2553588E+0x5f0>
    8389:	4a 8d 14 a5 00 00 00 	lea    0x0(,%r12,4),%rdx
    8390:	00 
    8391:	4c 89 ff             	mov    %r15,%rdi
    8394:	48 89 ee             	mov    %rbp,%rsi
    8397:	ff 15 5b a9 04 00    	call   *0x4a95b(%rip)        # 52cf8 <memcpy@GLIBC_2.14>
    839d:	4b 8d 14 a7          	lea    (%r15,%r12,4),%rdx
    83a1:	48 83 7c 24 40 00    	cmpq   $0x0,0x40(%rsp)
    83a7:	0f 8e e3 00 00 00    	jle    8490 <_ZN5alloc5slice10merge_sort17hc8ddbea8c2553588E+0x670>
    83ad:	4d 85 e4             	test   %r12,%r12
    83b0:	0f 8e da 00 00 00    	jle    8490 <_ZN5alloc5slice10merge_sort17hc8ddbea8c2553588E+0x670>
    83b6:	48 8b 44 24 38       	mov    0x38(%rsp),%rax
    83bb:	48 8b 4c 24 48       	mov    0x48(%rsp),%rcx
    83c0:	48 8d 04 88          	lea    (%rax,%rcx,4),%rax
    83c4:	49 89 de             	mov    %rbx,%r14
    83c7:	66 0f 1f 84 00 00 00 	nopw   0x0(%rax,%rax,1)
    83ce:	00 00 
    83d0:	48 89 d1             	mov    %rdx,%rcx
    83d3:	48 89 ee             	mov    %rbp,%rsi
    83d6:	48 83 c2 fc          	add    $0xfffffffffffffffc,%rdx
    83da:	48 83 c5 fc          	add    $0xfffffffffffffffc,%rbp
    83de:	8b 79 fc             	mov    -0x4(%rcx),%edi
    83e1:	8b 5e fc             	mov    -0x4(%rsi),%ebx
    83e4:	39 fb                	cmp    %edi,%ebx
    83e6:	48 0f 42 d1          	cmovb  %rcx,%rdx
    83ea:	48 0f 43 ee          	cmovae %rsi,%rbp
    83ee:	0f 42 fb             	cmovb  %ebx,%edi
    83f1:	89 38                	mov    %edi,(%rax)
    83f3:	4c 39 ed             	cmp    %r13,%rbp
    83f6:	76 09                	jbe    8401 <_ZN5alloc5slice10merge_sort17hc8ddbea8c2553588E+0x5e1>
    83f8:	48 83 c0 fc          	add    $0xfffffffffffffffc,%rax
    83fc:	4c 39 fa             	cmp    %r15,%rdx
    83ff:	77 cf                	ja     83d0 <_ZN5alloc5slice10merge_sort17hc8ddbea8c2553588E+0x5b0>
    8401:	49 89 ed             	mov    %rbp,%r13
    8404:	e9 8d 00 00 00       	jmp    8496 <_ZN5alloc5slice10merge_sort17hc8ddbea8c2553588E+0x676>
    8409:	0f 1f 80 00 00 00 00 	nopl   0x0(%rax)
    8410:	48 8d 14 85 00 00 00 	lea    0x0(,%rax,4),%rdx
    8417:	00 
    8418:	4c 89 ff             	mov    %r15,%rdi
    841b:	4c 89 ee             	mov    %r13,%rsi
    841e:	ff 15 d4 a8 04 00    	call   *0x4a8d4(%rip)        # 52cf8 <memcpy@GLIBC_2.14>
    8424:	48 8b 44 24 40       	mov    0x40(%rsp),%rax
    8429:	49 8d 14 87          	lea    (%r15,%rax,4),%rdx
    842d:	48 85 c0             	test   %rax,%rax
    8430:	7e 61                	jle    8493 <_ZN5alloc5slice10merge_sort17hc8ddbea8c2553588E+0x673>
    8432:	49 39 c6             	cmp    %rax,%r14
    8435:	7e 5c                	jle    8493 <_ZN5alloc5slice10merge_sort17hc8ddbea8c2553588E+0x673>
    8437:	48 8b 44 24 48       	mov    0x48(%rsp),%rax
    843c:	49 89 de             	mov    %rbx,%r14
    843f:	4c 8d 04 83          	lea    (%rbx,%rax,4),%r8
    8443:	66 66 66 66 2e 0f 1f 	data16 data16 data16 cs nopw 0x0(%rax,%rax,1)
    844a:	84 00 00 00 00 00 
    8450:	8b 7d 00             	mov    0x0(%rbp),%edi
    8453:	41 8b 37             	mov    (%r15),%esi
    8456:	31 c9                	xor    %ecx,%ecx
    8458:	31 db                	xor    %ebx,%ebx
    845a:	39 fe                	cmp    %edi,%esi
    845c:	0f 92 c0             	setb   %al
    845f:	0f 93 c3             	setae  %bl
    8462:	0f 47 fe             	cmova  %esi,%edi
    8465:	4d 8d 3c 9f          	lea    (%r15,%rbx,4),%r15
    8469:	41 89 7d 00          	mov    %edi,0x0(%r13)
    846d:	49 83 c5 04          	add    $0x4,%r13
    8471:	49 39 d7             	cmp    %rdx,%r15
    8474:	73 20                	jae    8496 <_ZN5alloc5slice10merge_sort17hc8ddbea8c2553588E+0x676>
    8476:	88 c1                	mov    %al,%cl
    8478:	48 8d 6c 8d 00       	lea    0x0(%rbp,%rcx,4),%rbp
    847d:	4c 39 c5             	cmp    %r8,%rbp
    8480:	72 ce                	jb     8450 <_ZN5alloc5slice10merge_sort17hc8ddbea8c2553588E+0x630>
    8482:	eb 12                	jmp    8496 <_ZN5alloc5slice10merge_sort17hc8ddbea8c2553588E+0x676>
    8484:	66 66 66 2e 0f 1f 84 	data16 data16 cs nopw 0x0(%rax,%rax,1)
    848b:	00 00 00 00 00 
    8490:	49 89 ed             	mov    %rbp,%r13
    8493:	49 89 de             	mov    %rbx,%r14
    8496:	4c 8b 64 24 08       	mov    0x8(%rsp),%r12
    849b:	4c 29 fa             	sub    %r15,%rdx
    849e:	4c 89 ef             	mov    %r13,%rdi
    84a1:	4c 89 fe             	mov    %r15,%rsi
    84a4:	ff 15 4e a8 04 00    	call   *0x4a84e(%rip)        # 52cf8 <memcpy@GLIBC_2.14>
    84aa:	4c 8b 6c 24 28       	mov    0x28(%rsp),%r13
    84af:	48 8b 8c 24 b0 00 00 	mov    0xb0(%rsp),%rcx
    84b6:	00 
    84b7:	4c 39 e9             	cmp    %r13,%rcx
    84ba:	0f 83 8d 01 00 00    	jae    864d <_ZN5alloc5slice10merge_sort17hc8ddbea8c2553588E+0x82d>
    84c0:	48 8b 44 24 18       	mov    0x18(%rsp),%rax
    84c5:	48 8b bc 24 90 00 00 	mov    0x90(%rsp),%rdi
    84cc:	00 
    84cd:	48 03 7c 24 40       	add    0x40(%rsp),%rdi
    84d2:	48 8b 94 24 a0 00 00 	mov    0xa0(%rsp),%rdx
    84d9:	00 
    84da:	48 8b b4 24 98 00 00 	mov    0x98(%rsp),%rsi
    84e1:	00 
    84e2:	48 89 14 30          	mov    %rdx,(%rax,%rsi,1)
    84e6:	48 89 7c 30 08       	mov    %rdi,0x8(%rax,%rsi,1)
    84eb:	4c 8b 6c 24 28       	mov    0x28(%rsp),%r13
    84f0:	48 8b bc 24 a8 00 00 	mov    0xa8(%rsp),%rdi
    84f7:	00 
    84f8:	49 39 fd             	cmp    %rdi,%r13
    84fb:	0f 86 85 01 00 00    	jbe    8686 <_ZN5alloc5slice10merge_sort17hc8ddbea8c2553588E+0x866>
    8501:	48 8b 44 24 18       	mov    0x18(%rsp),%rax
    8506:	48 8b 94 24 88 00 00 	mov    0x88(%rsp),%rdx
    850d:	00 
    850e:	48 8d 3c 10          	lea    (%rax,%rdx,1),%rdi
    8512:	48 8d 34 10          	lea    (%rax,%rdx,1),%rsi
    8516:	48 83 c6 10          	add    $0x10,%rsi
    851a:	4c 89 ea             	mov    %r13,%rdx
    851d:	48 29 ca             	sub    %rcx,%rdx
    8520:	48 c1 e2 04          	shl    $0x4,%rdx
    8524:	48 83 c2 e0          	add    $0xffffffffffffffe0,%rdx
    8528:	ff 15 3a a9 04 00    	call   *0x4a93a(%rip)        # 52e68 <memmove@GLIBC_2.2.5>
    852e:	49 ff cd             	dec    %r13
    8531:	4c 89 6c 24 28       	mov    %r13,0x28(%rsp)
    8536:	48 8b 7c 24 18       	mov    0x18(%rsp),%rdi
    853b:	49 83 fd 02          	cmp    $0x2,%r13
    853f:	4d 89 f7             	mov    %r14,%r15
    8542:	0f 83 08 fd ff ff    	jae    8250 <_ZN5alloc5slice10merge_sort17hc8ddbea8c2553588E+0x430>
    8548:	e9 d3 f9 ff ff       	jmp    7f20 <_ZN5alloc5slice10merge_sort17hc8ddbea8c2553588E+0x100>
    854d:	41 bd 03 00 00 00    	mov    $0x3,%r13d
    8553:	e9 c8 f9 ff ff       	jmp    7f20 <_ZN5alloc5slice10merge_sort17hc8ddbea8c2553588E+0x100>
    8558:	48 8b 74 24 20       	mov    0x20(%rsp),%rsi
    855d:	48 85 f6             	test   %rsi,%rsi
    8560:	74 0f                	je     8571 <_ZN5alloc5slice10merge_sort17hc8ddbea8c2553588E+0x751>
    8562:	48 c1 e6 04          	shl    $0x4,%rsi
    8566:	ba 08 00 00 00       	mov    $0x8,%edx
    856b:	ff 15 57 a6 04 00    	call   *0x4a657(%rip)        # 52bc8 <_GLOBAL_OFFSET_TABLE_+0x2d0>
    8571:	48 8b 74 24 58       	mov    0x58(%rsp),%rsi
    8576:	48 85 f6             	test   %rsi,%rsi
    8579:	74 14                	je     858f <_ZN5alloc5slice10merge_sort17hc8ddbea8c2553588E+0x76f>
    857b:	48 8b 7c 24 50       	mov    0x50(%rsp),%rdi
    8580:	48 c1 e6 02          	shl    $0x2,%rsi
    8584:	ba 04 00 00 00       	mov    $0x4,%edx
    8589:	ff 15 39 a6 04 00    	call   *0x4a639(%rip)        # 52bc8 <_GLOBAL_OFFSET_TABLE_+0x2d0>
    858f:	48 81 c4 b8 00 00 00 	add    $0xb8,%rsp
    8596:	5b                   	pop    %rbx
    8597:	41 5c                	pop    %r12
    8599:	41 5d                	pop    %r13
    859b:	41 5e                	pop    %r14
    859d:	41 5f                	pop    %r15
    859f:	5d                   	pop    %rbp
    85a0:	c3                   	ret
    85a1:	49 83 c1 08          	add    $0x8,%r9
    85a5:	4c 89 c8             	mov    %r9,%rax
    85a8:	0f 1f 84 00 00 00 00 	nopl   0x0(%rax,%rax,1)
    85af:	00 
    85b0:	89 38                	mov    %edi,(%rax)
    85b2:	48 83 c1 fc          	add    $0xfffffffffffffffc,%rcx
    85b6:	48 ff c5             	inc    %rbp
    85b9:	48 89 f0             	mov    %rsi,%rax
    85bc:	48 85 f6             	test   %rsi,%rsi
    85bf:	74 ce                	je     858f <_ZN5alloc5slice10merge_sort17hc8ddbea8c2553588E+0x76f>
    85c1:	48 8d 70 ff          	lea    -0x1(%rax),%rsi
    85c5:	41 8b 7c 87 fc       	mov    -0x4(%r15,%rax,4),%edi
    85ca:	41 8b 1c 87          	mov    (%r15,%rax,4),%ebx
    85ce:	39 df                	cmp    %ebx,%edi
    85d0:	73 e0                	jae    85b2 <_ZN5alloc5slice10merge_sort17hc8ddbea8c2553588E+0x792>
    85d2:	4d 8d 0c 87          	lea    (%r15,%rax,4),%r9
    85d6:	49 83 c1 fc          	add    $0xfffffffffffffffc,%r9
    85da:	48 8b 54 24 08       	mov    0x8(%rsp),%rdx
    85df:	48 29 f2             	sub    %rsi,%rdx
    85e2:	49 8d 04 87          	lea    (%r15,%rax,4),%rax
    85e6:	41 89 19             	mov    %ebx,(%r9)
    85e9:	48 83 fa 03          	cmp    $0x3,%rdx
    85ed:	72 c1                	jb     85b0 <_ZN5alloc5slice10merge_sort17hc8ddbea8c2553588E+0x790>
    85ef:	41 8b 59 08          	mov    0x8(%r9),%ebx
    85f3:	39 df                	cmp    %ebx,%edi
    85f5:	73 b9                	jae    85b0 <_ZN5alloc5slice10merge_sort17hc8ddbea8c2553588E+0x790>
    85f7:	89 18                	mov    %ebx,(%rax)
    85f9:	4c 89 c0             	mov    %r8,%rax
    85fc:	48 83 fa 03          	cmp    $0x3,%rdx
    8600:	74 ae                	je     85b0 <_ZN5alloc5slice10merge_sort17hc8ddbea8c2553588E+0x790>
    8602:	41 8b 59 0c          	mov    0xc(%r9),%ebx
    8606:	48 89 ea             	mov    %rbp,%rdx
    8609:	48 89 c8             	mov    %rcx,%rax
    860c:	39 df                	cmp    %ebx,%edi
    860e:	73 91                	jae    85a1 <_ZN5alloc5slice10merge_sort17hc8ddbea8c2553588E+0x781>
    8610:	89 18                	mov    %ebx,(%rax)
    8612:	48 83 ea 01          	sub    $0x1,%rdx
    8616:	72 0d                	jb     8625 <_ZN5alloc5slice10merge_sort17hc8ddbea8c2553588E+0x805>
    8618:	8b 58 08             	mov    0x8(%rax),%ebx
    861b:	48 83 c0 04          	add    $0x4,%rax
    861f:	39 df                	cmp    %ebx,%edi
    8621:	72 ed                	jb     8610 <_ZN5alloc5slice10merge_sort17hc8ddbea8c2553588E+0x7f0>
    8623:	eb 8b                	jmp    85b0 <_ZN5alloc5slice10merge_sort17hc8ddbea8c2553588E+0x790>
    8625:	4c 89 c0             	mov    %r8,%rax
    8628:	eb 86                	jmp    85b0 <_ZN5alloc5slice10merge_sort17hc8ddbea8c2553588E+0x790>
    862a:	48 89 d8             	mov    %rbx,%rax
    862d:	48 85 c0             	test   %rax,%rax
    8630:	0f 85 78 f8 ff ff    	jne    7eae <_ZN5alloc5slice10merge_sort17hc8ddbea8c2553588E+0x8e>
    8636:	4c 89 f7             	mov    %r14,%rdi
    8639:	48 89 de             	mov    %rbx,%rsi
    863c:	ff 15 ae a7 04 00    	call   *0x4a7ae(%rip)        # 52df0 <_GLOBAL_OFFSET_TABLE_+0x4f8>
    8642:	0f 0b                	ud2
    8644:	48 8d 15 b5 79 04 00 	lea    0x479b5(%rip),%rdx        # 50000 <__do_global_dtors_aux_fini_array_entry+0x38>
    864b:	eb 07                	jmp    8654 <_ZN5alloc5slice10merge_sort17hc8ddbea8c2553588E+0x834>
    864d:	48 8d 15 dc 79 04 00 	lea    0x479dc(%rip),%rdx        # 50030 <__do_global_dtors_aux_fini_array_entry+0x68>
    8654:	48 89 cf             	mov    %rcx,%rdi
    8657:	4c 89 ee             	mov    %r13,%rsi
    865a:	ff 15 c0 a2 04 00    	call   *0x4a2c0(%rip)        # 52920 <_GLOBAL_OFFSET_TABLE_+0x28>
    8660:	eb 43                	jmp    86a5 <_ZN5alloc5slice10merge_sort17hc8ddbea8c2553588E+0x885>
    8662:	48 89 d7             	mov    %rdx,%rdi
    8665:	48 8d 15 ac 79 04 00 	lea    0x479ac(%rip),%rdx        # 50018 <__do_global_dtors_aux_fini_array_entry+0x50>
    866c:	eb 31                	jmp    869f <_ZN5alloc5slice10merge_sort17hc8ddbea8c2553588E+0x87f>
    866e:	48 8d 05 a3 79 04 00 	lea    0x479a3(%rip),%rax        # 50018 <__do_global_dtors_aux_fini_array_entry+0x50>
    8675:	48 89 f7             	mov    %rsi,%rdi
    8678:	4c 89 e6             	mov    %r12,%rsi
    867b:	48 89 c2             	mov    %rax,%rdx
    867e:	ff 15 8c a8 04 00    	call   *0x4a88c(%rip)        # 52f10 <_GLOBAL_OFFSET_TABLE_+0x618>
    8684:	eb 1f                	jmp    86a5 <_ZN5alloc5slice10merge_sort17hc8ddbea8c2553588E+0x885>
    8686:	48 8d 15 bb 79 04 00 	lea    0x479bb(%rip),%rdx        # 50048 <__do_global_dtors_aux_fini_array_entry+0x80>
    868d:	4c 89 ee             	mov    %r13,%rsi
    8690:	ff 15 c2 a6 04 00    	call   *0x4a6c2(%rip)        # 52d58 <_GLOBAL_OFFSET_TABLE_+0x460>
    8696:	eb 0d                	jmp    86a5 <_ZN5alloc5slice10merge_sort17hc8ddbea8c2553588E+0x885>
    8698:	48 8d 15 49 79 04 00 	lea    0x47949(%rip),%rdx        # 4ffe8 <__do_global_dtors_aux_fini_array_entry+0x20>
    869f:	ff 15 f3 a4 04 00    	call   *0x4a4f3(%rip)        # 52b98 <_GLOBAL_OFFSET_TABLE_+0x2a0>
    86a5:	0f 0b                	ud2
    86a7:	48 8d 05 22 79 04 00 	lea    0x47922(%rip),%rax        # 4ffd0 <__do_global_dtors_aux_fini_array_entry+0x8>
    86ae:	eb c5                	jmp    8675 <_ZN5alloc5slice10merge_sort17hc8ddbea8c2553588E+0x855>
    86b0:	48 89 f7             	mov    %rsi,%rdi
    86b3:	48 29 ef             	sub    %rbp,%rdi
    86b6:	48 8d 15 13 79 04 00 	lea    0x47913(%rip),%rdx        # 4ffd0 <__do_global_dtors_aux_fini_array_entry+0x8>
    86bd:	eb e0                	jmp    869f <_ZN5alloc5slice10merge_sort17hc8ddbea8c2553588E+0x87f>
    86bf:	49 ff ce             	dec    %r14
    86c2:	48 8d 15 1f 79 04 00 	lea    0x4791f(%rip),%rdx        # 4ffe8 <__do_global_dtors_aux_fini_array_entry+0x20>
    86c9:	4c 89 f7             	mov    %r14,%rdi
    86cc:	48 89 d0             	mov    %rdx,%rax
    86cf:	4c 39 f6             	cmp    %r14,%rsi
    86d2:	73 a1                	jae    8675 <_ZN5alloc5slice10merge_sort17hc8ddbea8c2553588E+0x855>
    86d4:	eb c9                	jmp    869f <_ZN5alloc5slice10merge_sort17hc8ddbea8c2553588E+0x87f>
    86d6:	ff 15 74 a2 04 00    	call   *0x4a274(%rip)        # 52950 <_GLOBAL_OFFSET_TABLE_+0x58>
    86dc:	0f 0b                	ud2
    86de:	eb 02                	jmp    86e2 <_ZN5alloc5slice10merge_sort17hc8ddbea8c2553588E+0x8c2>
    86e0:	eb 00                	jmp    86e2 <_ZN5alloc5slice10merge_sort17hc8ddbea8c2553588E+0x8c2>
    86e2:	48 89 c3             	mov    %rax,%rbx
    86e5:	48 8b 7c 24 18       	mov    0x18(%rsp),%rdi
    86ea:	48 8b 74 24 20       	mov    0x20(%rsp),%rsi
    86ef:	e8 0c f7 ff ff       	call   7e00 <_ZN4core3ptr73drop_in_place$LT$alloc..vec..Vec$LT$alloc..slice..merge_sort..Run$GT$$GT$17h811d4428cb230e5bE>
    86f4:	48 8d 7c 24 50       	lea    0x50(%rsp),%rdi
    86f9:	e8 e2 f6 ff ff       	call   7de0 <_ZN4core3ptr54drop_in_place$LT$alloc..raw_vec..RawVec$LT$u32$GT$$GT$17hfd9f94ab588b30baE.llvm.11503904930727971934>
    86fe:	48 89 df             	mov    %rbx,%rdi
    8701:	e8 3a d9 ff ff       	call   6040 <_Unwind_Resume@plt>
    8706:	0f 0b                	ud2
    8708:	0f 1f 84 00 00 00 00 	nopl   0x0(%rax,%rax,1)
    870f:	00 

0000000000008710 <_ZN5alloc5slice29_$LT$impl$u20$$u5b$T$u5d$$GT$6concat17ha1b2ffa2c9cfb612E>:
    8710:	55                   	push   %rbp
    8711:	41 57                	push   %r15
    8713:	41 56                	push   %r14
    8715:	41 55                	push   %r13
    8717:	41 54                	push   %r12
    8719:	53                   	push   %rbx
    871a:	48 83 ec 18          	sub    $0x18,%rsp
    871e:	49 89 fe             	mov    %rdi,%r14
    8721:	48 85 d2             	test   %rdx,%rdx
    8724:	74 2e                	je     8754 <_ZN5alloc5slice29_$LT$impl$u20$$u5b$T$u5d$$GT$6concat17ha1b2ffa2c9cfb612E+0x44>
    8726:	49 89 d7             	mov    %rdx,%r15
    8729:	49 89 f5             	mov    %rsi,%r13
    872c:	48 89 d6             	mov    %rdx,%rsi
    872f:	48 c1 e6 04          	shl    $0x4,%rsi
    8733:	48 8d 42 ff          	lea    -0x1(%rdx),%rax
    8737:	48 b9 ff ff ff ff ff 	movabs $0xfffffffffffffff,%rcx
    873e:	ff ff 0f 
    8741:	48 21 c1             	and    %rax,%rcx
    8744:	48 83 f9 04          	cmp    $0x4,%rcx
    8748:	73 20                	jae    876a <_ZN5alloc5slice29_$LT$impl$u20$$u5b$T$u5d$$GT$6concat17ha1b2ffa2c9cfb612E+0x5a>
    874a:	31 ed                	xor    %ebp,%ebp
    874c:	4c 89 e8             	mov    %r13,%rax
    874f:	e9 8b 00 00 00       	jmp    87df <_ZN5alloc5slice29_$LT$impl$u20$$u5b$T$u5d$$GT$6concat17ha1b2ffa2c9cfb612E+0xcf>
    8754:	49 c7 06 04 00 00 00 	movq   $0x4,(%r14)
    875b:	66 0f ef c0          	pxor   %xmm0,%xmm0
    875f:	f3 41 0f 7f 46 08    	movdqu %xmm0,0x8(%r14)
    8765:	e9 68 01 00 00       	jmp    88d2 <_ZN5alloc5slice29_$LT$impl$u20$$u5b$T$u5d$$GT$6concat17ha1b2ffa2c9cfb612E+0x1c2>
    876a:	48 ff c1             	inc    %rcx
    876d:	89 c8                	mov    %ecx,%eax
    876f:	83 e0 03             	and    $0x3,%eax
    8772:	ba 04 00 00 00       	mov    $0x4,%edx
    8777:	48 0f 45 d0          	cmovne %rax,%rdx
    877b:	48 29 d1             	sub    %rdx,%rcx
    877e:	48 89 c8             	mov    %rcx,%rax
    8781:	48 c1 e0 04          	shl    $0x4,%rax
    8785:	4c 01 e8             	add    %r13,%rax
    8788:	49 8d 55 28          	lea    0x28(%r13),%rdx
    878c:	66 0f ef c0          	pxor   %xmm0,%xmm0
    8790:	66 0f ef c9          	pxor   %xmm1,%xmm1
    8794:	66 66 66 2e 0f 1f 84 	data16 data16 cs nopw 0x0(%rax,%rax,1)
    879b:	00 00 00 00 00 
    87a0:	f3 0f 6f 52 e0       	movdqu -0x20(%rdx),%xmm2
    87a5:	f3 0f 6f 5a f0       	movdqu -0x10(%rdx),%xmm3
    87aa:	66 0f 6c d3          	punpcklqdq %xmm3,%xmm2
    87ae:	66 0f d4 c2          	paddq  %xmm2,%xmm0
    87b2:	f3 0f 6f 12          	movdqu (%rdx),%xmm2
    87b6:	f3 0f 6f 5a 10       	movdqu 0x10(%rdx),%xmm3
    87bb:	66 0f 6c d3          	punpcklqdq %xmm3,%xmm2
    87bf:	66 0f d4 ca          	paddq  %xmm2,%xmm1
    87c3:	48 83 c2 40          	add    $0x40,%rdx
    87c7:	48 83 c1 fc          	add    $0xfffffffffffffffc,%rcx
    87cb:	75 d3                	jne    87a0 <_ZN5alloc5slice29_$LT$impl$u20$$u5b$T$u5d$$GT$6concat17ha1b2ffa2c9cfb612E+0x90>
    87cd:	66 0f d4 c8          	paddq  %xmm0,%xmm1
    87d1:	66 0f 70 c1 ee       	pshufd $0xee,%xmm1,%xmm0
    87d6:	66 0f d4 c1          	paddq  %xmm1,%xmm0
    87da:	66 48 0f 7e c5       	movq   %xmm0,%rbp
    87df:	4c 01 ee             	add    %r13,%rsi
    87e2:	66 66 66 66 66 2e 0f 	data16 data16 data16 data16 cs nopw 0x0(%rax,%rax,1)
    87e9:	1f 84 00 00 00 00 00 
    87f0:	48 03 68 08          	add    0x8(%rax),%rbp
    87f4:	48 83 c0 10          	add    $0x10,%rax
    87f8:	48 39 f0             	cmp    %rsi,%rax
    87fb:	75 f3                	jne    87f0 <_ZN5alloc5slice29_$LT$impl$u20$$u5b$T$u5d$$GT$6concat17ha1b2ffa2c9cfb612E+0xe0>
    87fd:	48 85 ed             	test   %rbp,%rbp
    8800:	48 89 74 24 10       	mov    %rsi,0x10(%rsp)
    8805:	74 40                	je     8847 <_ZN5alloc5slice29_$LT$impl$u20$$u5b$T$u5d$$GT$6concat17ha1b2ffa2c9cfb612E+0x137>
    8807:	31 db                	xor    %ebx,%ebx
    8809:	48 89 e8             	mov    %rbp,%rax
    880c:	48 c1 e8 3d          	shr    $0x3d,%rax
    8810:	0f 94 c0             	sete   %al
    8813:	0f 85 cb 00 00 00    	jne    88e4 <_ZN5alloc5slice29_$LT$impl$u20$$u5b$T$u5d$$GT$6concat17ha1b2ffa2c9cfb612E+0x1d4>
    8819:	48 8d 3c ad 00 00 00 	lea    0x0(,%rbp,4),%rdi
    8820:	00 
    8821:	88 c3                	mov    %al,%bl
    8823:	48 c1 e3 02          	shl    $0x2,%rbx
    8827:	48 85 ff             	test   %rdi,%rdi
    882a:	48 89 7c 24 08       	mov    %rdi,0x8(%rsp)
    882f:	74 1e                	je     884f <_ZN5alloc5slice29_$LT$impl$u20$$u5b$T$u5d$$GT$6concat17ha1b2ffa2c9cfb612E+0x13f>
    8831:	48 89 de             	mov    %rbx,%rsi
    8834:	ff 15 3e a3 04 00    	call   *0x4a33e(%rip)        # 52b78 <_GLOBAL_OFFSET_TABLE_+0x280>
    883a:	49 89 c4             	mov    %rax,%r12
    883d:	4d 85 e4             	test   %r12,%r12
    8840:	75 19                	jne    885b <_ZN5alloc5slice29_$LT$impl$u20$$u5b$T$u5d$$GT$6concat17ha1b2ffa2c9cfb612E+0x14b>
    8842:	e9 a5 00 00 00       	jmp    88ec <_ZN5alloc5slice29_$LT$impl$u20$$u5b$T$u5d$$GT$6concat17ha1b2ffa2c9cfb612E+0x1dc>
    8847:	41 bc 04 00 00 00    	mov    $0x4,%r12d
    884d:	eb 0c                	jmp    885b <_ZN5alloc5slice29_$LT$impl$u20$$u5b$T$u5d$$GT$6concat17ha1b2ffa2c9cfb612E+0x14b>
    884f:	49 89 dc             	mov    %rbx,%r12
    8852:	4d 85 e4             	test   %r12,%r12
    8855:	0f 84 91 00 00 00    	je     88ec <_ZN5alloc5slice29_$LT$impl$u20$$u5b$T$u5d$$GT$6concat17ha1b2ffa2c9cfb612E+0x1dc>
    885b:	4d 89 26             	mov    %r12,(%r14)
    885e:	49 89 6e 08          	mov    %rbp,0x8(%r14)
    8862:	49 c7 46 10 00 00 00 	movq   $0x0,0x10(%r14)
    8869:	00 
    886a:	4d 85 ff             	test   %r15,%r15
    886d:	74 63                	je     88d2 <_ZN5alloc5slice29_$LT$impl$u20$$u5b$T$u5d$$GT$6concat17ha1b2ffa2c9cfb612E+0x1c2>
    886f:	31 db                	xor    %ebx,%ebx
    8871:	eb 34                	jmp    88a7 <_ZN5alloc5slice29_$LT$impl$u20$$u5b$T$u5d$$GT$6concat17ha1b2ffa2c9cfb612E+0x197>
    8873:	66 66 66 66 2e 0f 1f 	data16 data16 data16 cs nopw 0x0(%rax,%rax,1)
    887a:	84 00 00 00 00 00 
    8880:	4a 8d 14 bd 00 00 00 	lea    0x0(,%r15,4),%rdx
    8887:	00 
    8888:	49 8d 3c 9c          	lea    (%r12,%rbx,4),%rdi
    888c:	48 89 ee             	mov    %rbp,%rsi
    888f:	ff 15 63 a4 04 00    	call   *0x4a463(%rip)        # 52cf8 <memcpy@GLIBC_2.14>
    8895:	4c 01 fb             	add    %r15,%rbx
    8898:	49 89 5e 10          	mov    %rbx,0x10(%r14)
    889c:	49 83 c5 10          	add    $0x10,%r13
    88a0:	4c 3b 6c 24 10       	cmp    0x10(%rsp),%r13
    88a5:	74 2b                	je     88d2 <_ZN5alloc5slice29_$LT$impl$u20$$u5b$T$u5d$$GT$6concat17ha1b2ffa2c9cfb612E+0x1c2>
    88a7:	49 8b 6d 00          	mov    0x0(%r13),%rbp
    88ab:	4d 8b 7d 08          	mov    0x8(%r13),%r15
    88af:	49 8b 46 08          	mov    0x8(%r14),%rax
    88b3:	48 29 d8             	sub    %rbx,%rax
    88b6:	4c 39 f8             	cmp    %r15,%rax
    88b9:	73 c5                	jae    8880 <_ZN5alloc5slice29_$LT$impl$u20$$u5b$T$u5d$$GT$6concat17ha1b2ffa2c9cfb612E+0x170>
    88bb:	4c 89 f7             	mov    %r14,%rdi
    88be:	48 89 de             	mov    %rbx,%rsi
    88c1:	4c 89 fa             	mov    %r15,%rdx
    88c4:	e8 87 d7 ff ff       	call   6050 <_ZN5alloc7raw_vec19RawVec$LT$T$C$A$GT$7reserve21do_reserve_and_handle17h9291be5b74bcc631E>
    88c9:	4d 8b 26             	mov    (%r14),%r12
    88cc:	49 8b 5e 10          	mov    0x10(%r14),%rbx
    88d0:	eb ae                	jmp    8880 <_ZN5alloc5slice29_$LT$impl$u20$$u5b$T$u5d$$GT$6concat17ha1b2ffa2c9cfb612E+0x170>
    88d2:	4c 89 f0             	mov    %r14,%rax
    88d5:	48 83 c4 18          	add    $0x18,%rsp
    88d9:	5b                   	pop    %rbx
    88da:	41 5c                	pop    %r12
    88dc:	41 5d                	pop    %r13
    88de:	41 5e                	pop    %r14
    88e0:	41 5f                	pop    %r15
    88e2:	5d                   	pop    %rbp
    88e3:	c3                   	ret
    88e4:	ff 15 66 a0 04 00    	call   *0x4a066(%rip)        # 52950 <_GLOBAL_OFFSET_TABLE_+0x58>
    88ea:	0f 0b                	ud2
    88ec:	48 8b 7c 24 08       	mov    0x8(%rsp),%rdi
    88f1:	48 89 de             	mov    %rbx,%rsi
    88f4:	ff 15 f6 a4 04 00    	call   *0x4a4f6(%rip)        # 52df0 <_GLOBAL_OFFSET_TABLE_+0x4f8>
    88fa:	0f 0b                	ud2
    88fc:	48 89 c3             	mov    %rax,%rbx
    88ff:	4c 89 f7             	mov    %r14,%rdi
    8902:	e8 d9 f4 ff ff       	call   7de0 <_ZN4core3ptr54drop_in_place$LT$alloc..raw_vec..RawVec$LT$u32$GT$$GT$17hfd9f94ab588b30baE.llvm.11503904930727971934>
    8907:	48 89 df             	mov    %rbx,%rdi
    890a:	e8 31 d7 ff ff       	call   6040 <_Unwind_Resume@plt>
    890f:	0f 0b                	ud2
    8911:	66 2e 0f 1f 84 00 00 	cs nopw 0x0(%rax,%rax,1)
    8918:	00 00 00 
    891b:	0f 1f 44 00 00       	nopl   0x0(%rax,%rax,1)

0000000000008920 <_ZN5alloc7raw_vec11finish_grow17h5adff831e678a477E.llvm.13526559632026943626>:
    8920:	41 57                	push   %r15
    8922:	41 56                	push   %r14
    8924:	53                   	push   %rbx
    8925:	49 89 f7             	mov    %rsi,%r15
    8928:	48 89 fb             	mov    %rdi,%rbx
    892b:	48 85 d2             	test   %rdx,%rdx
    892e:	74 51                	je     8981 <_ZN5alloc7raw_vec11finish_grow17h5adff831e678a477E.llvm.13526559632026943626+0x61>
    8930:	49 89 d6             	mov    %rdx,%r14
    8933:	48 83 79 10 00       	cmpq   $0x0,0x10(%rcx)
    8938:	74 22                	je     895c <_ZN5alloc7raw_vec11finish_grow17h5adff831e678a477E.llvm.13526559632026943626+0x3c>
    893a:	48 8b 71 08          	mov    0x8(%rcx),%rsi
    893e:	48 85 f6             	test   %rsi,%rsi
    8941:	74 19                	je     895c <_ZN5alloc7raw_vec11finish_grow17h5adff831e678a477E.llvm.13526559632026943626+0x3c>
    8943:	48 8b 39             	mov    (%rcx),%rdi
    8946:	4c 89 f2             	mov    %r14,%rdx
    8949:	4c 89 f9             	mov    %r15,%rcx
    894c:	ff 15 3e a6 04 00    	call   *0x4a63e(%rip)        # 52f90 <_GLOBAL_OFFSET_TABLE_+0x698>
    8952:	4c 89 f9             	mov    %r15,%rcx
    8955:	48 85 c0             	test   %rax,%rax
    8958:	75 1b                	jne    8975 <_ZN5alloc7raw_vec11finish_grow17h5adff831e678a477E.llvm.13526559632026943626+0x55>
    895a:	eb 3d                	jmp    8999 <_ZN5alloc7raw_vec11finish_grow17h5adff831e678a477E.llvm.13526559632026943626+0x79>
    895c:	4d 85 ff             	test   %r15,%r15
    895f:	74 2e                	je     898f <_ZN5alloc7raw_vec11finish_grow17h5adff831e678a477E.llvm.13526559632026943626+0x6f>
    8961:	4c 89 ff             	mov    %r15,%rdi
    8964:	4c 89 f6             	mov    %r14,%rsi
    8967:	ff 15 0b a2 04 00    	call   *0x4a20b(%rip)        # 52b78 <_GLOBAL_OFFSET_TABLE_+0x280>
    896d:	4c 89 f9             	mov    %r15,%rcx
    8970:	48 85 c0             	test   %rax,%rax
    8973:	74 24                	je     8999 <_ZN5alloc7raw_vec11finish_grow17h5adff831e678a477E.llvm.13526559632026943626+0x79>
    8975:	48 89 43 08          	mov    %rax,0x8(%rbx)
    8979:	48 89 4b 10          	mov    %rcx,0x10(%rbx)
    897d:	31 c0                	xor    %eax,%eax
    897f:	eb 25                	jmp    89a6 <_ZN5alloc7raw_vec11finish_grow17h5adff831e678a477E.llvm.13526559632026943626+0x86>
    8981:	4c 89 7b 08          	mov    %r15,0x8(%rbx)
    8985:	48 c7 43 10 00 00 00 	movq   $0x0,0x10(%rbx)
    898c:	00 
    898d:	eb 12                	jmp    89a1 <_ZN5alloc7raw_vec11finish_grow17h5adff831e678a477E.llvm.13526559632026943626+0x81>
    898f:	31 c9                	xor    %ecx,%ecx
    8991:	4c 89 f0             	mov    %r14,%rax
    8994:	48 85 c0             	test   %rax,%rax
    8997:	75 dc                	jne    8975 <_ZN5alloc7raw_vec11finish_grow17h5adff831e678a477E.llvm.13526559632026943626+0x55>
    8999:	4c 89 7b 08          	mov    %r15,0x8(%rbx)
    899d:	4c 89 73 10          	mov    %r14,0x10(%rbx)
    89a1:	b8 01 00 00 00       	mov    $0x1,%eax
    89a6:	48 89 03             	mov    %rax,(%rbx)
    89a9:	5b                   	pop    %rbx
    89aa:	41 5e                	pop    %r14
    89ac:	41 5f                	pop    %r15
    89ae:	c3                   	ret
    89af:	90                   	nop

00000000000089b0 <_ZN5alloc7raw_vec19RawVec$LT$T$C$A$GT$16reserve_for_push17h80739b325c572c25E>:
    89b0:	41 56                	push   %r14
    89b2:	53                   	push   %rbx
    89b3:	48 83 ec 38          	sub    $0x38,%rsp
    89b7:	48 ff c6             	inc    %rsi
    89ba:	0f 84 ac 00 00 00    	je     8a6c <_ZN5alloc7raw_vec19RawVec$LT$T$C$A$GT$16reserve_for_push17h80739b325c572c25E+0xbc>
    89c0:	49 89 fe             	mov    %rdi,%r14
    89c3:	48 8b 47 08          	mov    0x8(%rdi),%rax
    89c7:	48 8d 0c 00          	lea    (%rax,%rax,1),%rcx
    89cb:	48 39 f1             	cmp    %rsi,%rcx
    89ce:	48 0f 47 f1          	cmova  %rcx,%rsi
    89d2:	48 83 fe 05          	cmp    $0x5,%rsi
    89d6:	bb 04 00 00 00       	mov    $0x4,%ebx
    89db:	48 0f 43 de          	cmovae %rsi,%rbx
    89df:	31 d2                	xor    %edx,%edx
    89e1:	48 89 d9             	mov    %rbx,%rcx
    89e4:	48 c1 e9 3b          	shr    $0x3b,%rcx
    89e8:	0f 94 c2             	sete   %dl
    89eb:	48 89 de             	mov    %rbx,%rsi
    89ee:	48 c1 e6 04          	shl    $0x4,%rsi
    89f2:	48 c1 e2 03          	shl    $0x3,%rdx
    89f6:	48 85 c0             	test   %rax,%rax
    89f9:	74 1c                	je     8a17 <_ZN5alloc7raw_vec19RawVec$LT$T$C$A$GT$16reserve_for_push17h80739b325c572c25E+0x67>
    89fb:	49 8b 0e             	mov    (%r14),%rcx
    89fe:	48 c1 e0 04          	shl    $0x4,%rax
    8a02:	48 89 4c 24 08       	mov    %rcx,0x8(%rsp)
    8a07:	48 89 44 24 10       	mov    %rax,0x10(%rsp)
    8a0c:	48 c7 44 24 18 08 00 	movq   $0x8,0x18(%rsp)
    8a13:	00 00 
    8a15:	eb 09                	jmp    8a20 <_ZN5alloc7raw_vec19RawVec$LT$T$C$A$GT$16reserve_for_push17h80739b325c572c25E+0x70>
    8a17:	48 c7 44 24 18 00 00 	movq   $0x0,0x18(%rsp)
    8a1e:	00 00 
    8a20:	48 8d 7c 24 20       	lea    0x20(%rsp),%rdi
    8a25:	48 8d 4c 24 08       	lea    0x8(%rsp),%rcx
    8a2a:	e8 f1 fe ff ff       	call   8920 <_ZN5alloc7raw_vec11finish_grow17h5adff831e678a477E.llvm.13526559632026943626>
    8a2f:	48 83 7c 24 20 00    	cmpq   $0x0,0x20(%rsp)
    8a35:	48 8b 7c 24 28       	mov    0x28(%rsp),%rdi
    8a3a:	74 1c                	je     8a58 <_ZN5alloc7raw_vec19RawVec$LT$T$C$A$GT$16reserve_for_push17h80739b325c572c25E+0xa8>
    8a3c:	48 8b 74 24 30       	mov    0x30(%rsp),%rsi
    8a41:	48 b8 01 00 00 00 00 	movabs $0x8000000000000001,%rax
    8a48:	00 00 80 
    8a4b:	48 39 c6             	cmp    %rax,%rsi
    8a4e:	75 17                	jne    8a67 <_ZN5alloc7raw_vec19RawVec$LT$T$C$A$GT$16reserve_for_push17h80739b325c572c25E+0xb7>
    8a50:	48 83 c4 38          	add    $0x38,%rsp
    8a54:	5b                   	pop    %rbx
    8a55:	41 5e                	pop    %r14
    8a57:	c3                   	ret
    8a58:	49 89 3e             	mov    %rdi,(%r14)
    8a5b:	49 89 5e 08          	mov    %rbx,0x8(%r14)
    8a5f:	48 83 c4 38          	add    $0x38,%rsp
    8a63:	5b                   	pop    %rbx
    8a64:	41 5e                	pop    %r14
    8a66:	c3                   	ret
    8a67:	48 85 f6             	test   %rsi,%rsi
    8a6a:	75 08                	jne    8a74 <_ZN5alloc7raw_vec19RawVec$LT$T$C$A$GT$16reserve_for_push17h80739b325c572c25E+0xc4>
    8a6c:	ff 15 de 9e 04 00    	call   *0x49ede(%rip)        # 52950 <_GLOBAL_OFFSET_TABLE_+0x58>
    8a72:	0f 0b                	ud2
    8a74:	ff 15 76 a3 04 00    	call   *0x4a376(%rip)        # 52df0 <_GLOBAL_OFFSET_TABLE_+0x4f8>
    8a7a:	0f 0b                	ud2
    8a7c:	0f 1f 40 00          	nopl   0x0(%rax)

0000000000008a80 <_ZN3std10sys_common9backtrace28__rust_begin_short_backtrace17h64e43f16d242678fE>:
    8a80:	50                   	push   %rax
    8a81:	ff d7                	call   *%rdi
    8a83:	58                   	pop    %rax
    8a84:	c3                   	ret
    8a85:	66 2e 0f 1f 84 00 00 	cs nopw 0x0(%rax,%rax,1)
    8a8c:	00 00 00 
    8a8f:	90                   	nop

0000000000008a90 <_ZN44_$LT$$RF$T$u20$as$u20$core..fmt..Display$GT$3fmt17h44f7618e71e03ad2E>:
    8a90:	48 8b 3f             	mov    (%rdi),%rdi
    8a93:	ff 25 bf 9e 04 00    	jmp    *0x49ebf(%rip)        # 52958 <_GLOBAL_OFFSET_TABLE_+0x60>
    8a99:	0f 1f 80 00 00 00 00 	nopl   0x0(%rax)

0000000000008aa0 <_ZN4core3ptr47drop_in_place$LT$alloc..vec..Vec$LT$u32$GT$$GT$17h90166703e603d935E>:
    8aa0:	48 85 f6             	test   %rsi,%rsi
    8aa3:	74 0f                	je     8ab4 <_ZN4core3ptr47drop_in_place$LT$alloc..vec..Vec$LT$u32$GT$$GT$17h90166703e603d935E+0x14>
    8aa5:	48 c1 e6 02          	shl    $0x2,%rsi
    8aa9:	ba 04 00 00 00       	mov    $0x4,%edx
    8aae:	ff 25 14 a1 04 00    	jmp    *0x4a114(%rip)        # 52bc8 <_GLOBAL_OFFSET_TABLE_+0x2d0>
    8ab4:	c3                   	ret
    8ab5:	66 2e 0f 1f 84 00 00 	cs nopw 0x0(%rax,%rax,1)
    8abc:	00 00 00 
    8abf:	90                   	nop

0000000000008ac0 <_ZN4core3ptr52drop_in_place$LT$core..num..error..ParseIntError$GT$17h6be606b467cbc233E>:
    8ac0:	c3                   	ret
    8ac1:	66 2e 0f 1f 84 00 00 	cs nopw 0x0(%rax,%rax,1)
    8ac8:	00 00 00 
    8acb:	0f 1f 44 00 00       	nopl   0x0(%rax,%rax,1)

0000000000008ad0 <_ZN5alloc5alloc8box_free17h1dfad9a610729d1aE>:
    8ad0:	be 04 00 00 00       	mov    $0x4,%esi
    8ad5:	ba 04 00 00 00       	mov    $0x4,%edx
    8ada:	ff 25 e8 a0 04 00    	jmp    *0x4a0e8(%rip)        # 52bc8 <_GLOBAL_OFFSET_TABLE_+0x2d0>

0000000000008ae0 <_ZN8aoc_20224main17h99dc0bcfc1489f21E>:
    8ae0:	55                   	push   %rbp
    8ae1:	41 57                	push   %r15
    8ae3:	41 56                	push   %r14
    8ae5:	41 55                	push   %r13
    8ae7:	41 54                	push   %r12
    8ae9:	53                   	push   %rbx
    8aea:	48 81 ec d8 00 00 00 	sub    $0xd8,%rsp
    8af1:	48 b9 00 00 00 00 00 	movabs $0x2000000000000000,%rcx
    8af8:	00 00 20 
    8afb:	48 c7 44 24 38 d0 28 	movq   $0x28d0,0x38(%rsp)
    8b02:	00 00 
    8b04:	4c 8d 25 65 65 03 00 	lea    0x36565(%rip),%r12        # 3f070 <_fini+0x448>
    8b0b:	4c 89 64 24 40       	mov    %r12,0x40(%rsp)
    8b10:	48 c7 44 24 48 d0 28 	movq   $0x28d0,0x48(%rsp)
    8b17:	00 00 
    8b19:	0f 28 05 30 65 03 00 	movaps 0x36530(%rip),%xmm0        # 3f050 <_fini+0x428>
    8b20:	0f 11 44 24 58       	movups %xmm0,0x58(%rsp)
    8b25:	48 b8 0a 00 00 00 0a 	movabs $0xa0000000a,%rax
    8b2c:	00 00 00 
    8b2f:	48 89 44 24 68       	mov    %rax,0x68(%rsp)
    8b34:	c6 44 24 70 00       	movb   $0x0,0x70(%rsp)
    8b39:	0f b6 44 24 6c       	movzbl 0x6c(%rsp),%eax
    8b3e:	88 44 24 07          	mov    %al,0x7(%rsp)
    8b42:	48 8b 44 24 30       	mov    0x30(%rsp),%rax
    8b47:	48 89 44 24 08       	mov    %rax,0x8(%rsp)
    8b4c:	4c 8b 6c 24 50       	mov    0x50(%rsp),%r13
    8b51:	b8 04 00 00 00       	mov    $0x4,%eax
    8b56:	48 89 44 24 18       	mov    %rax,0x18(%rsp)
    8b5b:	31 db                	xor    %ebx,%ebx
    8b5d:	0f b6 44 24 71       	movzbl 0x71(%rsp),%eax
    8b62:	88 44 24 06          	mov    %al,0x6(%rsp)
    8b66:	48 ff c9             	dec    %rcx
    8b69:	48 89 8c 24 d0 00 00 	mov    %rcx,0xd0(%rsp)
    8b70:	00 
    8b71:	45 31 ff             	xor    %r15d,%r15d
    8b74:	31 ed                	xor    %ebp,%ebp
    8b76:	31 c0                	xor    %eax,%eax
    8b78:	48 89 44 24 10       	mov    %rax,0x10(%rsp)
    8b7d:	45 31 f6             	xor    %r14d,%r14d
    8b80:	eb 43                	jmp    8bc5 <_ZN8aoc_20224main17h99dc0bcfc1489f21E+0xe5>
    8b82:	66 66 66 66 66 2e 0f 	data16 data16 data16 data16 cs nopw 0x0(%rax,%rax,1)
    8b89:	1f 84 00 00 00 00 00 
    8b90:	48 8b 84 24 88 00 00 	mov    0x88(%rsp),%rax
    8b97:	00 
    8b98:	48 89 44 24 18       	mov    %rax,0x18(%rsp)
    8b9d:	48 8b 84 24 90 00 00 	mov    0x90(%rsp),%rax
    8ba4:	00 
    8ba5:	48 89 44 24 10       	mov    %rax,0x10(%rsp)
    8baa:	4c 8b b4 24 98 00 00 	mov    0x98(%rsp),%r14
    8bb1:	00 
    8bb2:	48 8b 9c 24 c8 00 00 	mov    0xc8(%rsp),%rbx
    8bb9:	00 
    8bba:	80 7c 24 2c 00       	cmpb   $0x0,0x2c(%rsp)
    8bbf:	0f 84 57 03 00 00    	je     8f1c <_ZN8aoc_20224main17h99dc0bcfc1489f21E+0x43c>
    8bc5:	48 81 fd d0 28 00 00 	cmp    $0x28d0,%rbp
    8bcc:	0f 87 c9 00 00 00    	ja     8c9b <_ZN8aoc_20224main17h99dc0bcfc1489f21E+0x1bb>
    8bd2:	66 66 66 66 66 2e 0f 	data16 data16 data16 data16 cs nopw 0x0(%rax,%rax,1)
    8bd9:	1f 84 00 00 00 00 00 
    8be0:	b8 d0 28 00 00       	mov    $0x28d0,%eax
    8be5:	48 29 e8             	sub    %rbp,%rax
    8be8:	48 81 fd c0 28 00 00 	cmp    $0x28c0,%rbp
    8bef:	76 3f                	jbe    8c30 <_ZN8aoc_20224main17h99dc0bcfc1489f21E+0x150>
    8bf1:	31 d2                	xor    %edx,%edx
    8bf3:	48 81 fd d0 28 00 00 	cmp    $0x28d0,%rbp
    8bfa:	74 25                	je     8c21 <_ZN8aoc_20224main17h99dc0bcfc1489f21E+0x141>
    8bfc:	0f 1f 40 00          	nopl   0x0(%rax)
    8c00:	48 8d 0c 2a          	lea    (%rdx,%rbp,1),%rcx
    8c04:	41 80 3c 0c 0a       	cmpb   $0xa,(%r12,%rcx,1)
    8c09:	74 70                	je     8c7b <_ZN8aoc_20224main17h99dc0bcfc1489f21E+0x19b>
    8c0b:	48 8d 0c 2a          	lea    (%rdx,%rbp,1),%rcx
    8c0f:	48 ff c1             	inc    %rcx
    8c12:	48 ff c2             	inc    %rdx
    8c15:	48 81 f9 d0 28 00 00 	cmp    $0x28d0,%rcx
    8c1c:	75 e2                	jne    8c00 <_ZN8aoc_20224main17h99dc0bcfc1489f21E+0x120>
    8c1e:	48 89 c2             	mov    %rax,%rdx
    8c21:	31 c0                	xor    %eax,%eax
    8c23:	48 83 f8 01          	cmp    $0x1,%rax
    8c27:	74 21                	je     8c4a <_ZN8aoc_20224main17h99dc0bcfc1489f21E+0x16a>
    8c29:	eb 65                	jmp    8c90 <_ZN8aoc_20224main17h99dc0bcfc1489f21E+0x1b0>
    8c2b:	0f 1f 44 00 00       	nopl   0x0(%rax,%rax,1)
    8c30:	4c 01 e5             	add    %r12,%rbp
    8c33:	bf 0a 00 00 00       	mov    $0xa,%edi
    8c38:	48 89 ee             	mov    %rbp,%rsi
    8c3b:	48 89 c2             	mov    %rax,%rdx
    8c3e:	ff 15 24 a0 04 00    	call   *0x4a024(%rip)        # 52c68 <_GLOBAL_OFFSET_TABLE_+0x370>
    8c44:	48 83 f8 01          	cmp    $0x1,%rax
    8c48:	75 46                	jne    8c90 <_ZN8aoc_20224main17h99dc0bcfc1489f21E+0x1b0>
    8c4a:	4c 01 fa             	add    %r15,%rdx
    8c4d:	49 89 d5             	mov    %rdx,%r13
    8c50:	49 ff c5             	inc    %r13
    8c53:	4d 89 ef             	mov    %r13,%r15
    8c56:	4c 89 ed             	mov    %r13,%rbp
    8c59:	74 85                	je     8be0 <_ZN8aoc_20224main17h99dc0bcfc1489f21E+0x100>
    8c5b:	4d 89 ef             	mov    %r13,%r15
    8c5e:	4c 89 ed             	mov    %r13,%rbp
    8c61:	49 81 fd d0 28 00 00 	cmp    $0x28d0,%r13
    8c68:	77 31                	ja     8c9b <_ZN8aoc_20224main17h99dc0bcfc1489f21E+0x1bb>
    8c6a:	0f b6 44 24 07       	movzbl 0x7(%rsp),%eax
    8c6f:	41 38 04 14          	cmp    %al,(%r12,%rdx,1)
    8c73:	0f 85 67 ff ff ff    	jne    8be0 <_ZN8aoc_20224main17h99dc0bcfc1489f21E+0x100>
    8c79:	eb 71                	jmp    8cec <_ZN8aoc_20224main17h99dc0bcfc1489f21E+0x20c>
    8c7b:	b8 01 00 00 00       	mov    $0x1,%eax
    8c80:	48 83 f8 01          	cmp    $0x1,%rax
    8c84:	74 c4                	je     8c4a <_ZN8aoc_20224main17h99dc0bcfc1489f21E+0x16a>
    8c86:	66 2e 0f 1f 84 00 00 	cs nopw 0x0(%rax,%rax,1)
    8c8d:	00 00 00 
    8c90:	41 bf d0 28 00 00    	mov    $0x28d0,%r15d
    8c96:	bd d0 28 00 00       	mov    $0x28d0,%ebp
    8c9b:	48 81 fb d0 28 00 00 	cmp    $0x28d0,%rbx
    8ca2:	0f 84 74 02 00 00    	je     8f1c <_ZN8aoc_20224main17h99dc0bcfc1489f21E+0x43c>
    8ca8:	ba d0 28 00 00       	mov    $0x28d0,%edx
    8cad:	c6 44 24 06 01       	movb   $0x1,0x6(%rsp)
    8cb2:	c7 44 24 2c 00 00 00 	movl   $0x0,0x2c(%rsp)
    8cb9:	00 
    8cba:	48 89 9c 24 c8 00 00 	mov    %rbx,0xc8(%rsp)
    8cc1:	00 
    8cc2:	49 8d 34 1c          	lea    (%r12,%rbx,1),%rsi
    8cc6:	48 89 d0             	mov    %rdx,%rax
    8cc9:	48 29 d8             	sub    %rbx,%rax
    8ccc:	75 52                	jne    8d20 <_ZN8aoc_20224main17h99dc0bcfc1489f21E+0x240>
    8cce:	4d 85 f6             	test   %r14,%r14
    8cd1:	48 8b 5c 24 10       	mov    0x10(%rsp),%rbx
    8cd6:	4c 89 f1             	mov    %r14,%rcx
    8cd9:	0f 85 d1 00 00 00    	jne    8db0 <_ZN8aoc_20224main17h99dc0bcfc1489f21E+0x2d0>
    8cdf:	48 89 74 24 78       	mov    %rsi,0x78(%rsp)
    8ce4:	45 31 f6             	xor    %r14d,%r14d
    8ce7:	e9 21 01 00 00       	jmp    8e0d <_ZN8aoc_20224main17h99dc0bcfc1489f21E+0x32d>
    8cec:	b0 01                	mov    $0x1,%al
    8cee:	89 44 24 2c          	mov    %eax,0x2c(%rsp)
    8cf2:	4c 89 6c 24 08       	mov    %r13,0x8(%rsp)
    8cf7:	4c 89 ac 24 c8 00 00 	mov    %r13,0xc8(%rsp)
    8cfe:	00 
    8cff:	4d 89 ef             	mov    %r13,%r15
    8d02:	4c 89 ed             	mov    %r13,%rbp
    8d05:	49 8d 34 1c          	lea    (%r12,%rbx,1),%rsi
    8d09:	48 89 d0             	mov    %rdx,%rax
    8d0c:	48 29 d8             	sub    %rbx,%rax
    8d0f:	74 bd                	je     8cce <_ZN8aoc_20224main17h99dc0bcfc1489f21E+0x1ee>
    8d11:	66 66 66 66 66 66 2e 	data16 data16 data16 data16 data16 cs nopw 0x0(%rax,%rax,1)
    8d18:	0f 1f 84 00 00 00 00 
    8d1f:	00 
    8d20:	42 80 7c 22 ff 0d    	cmpb   $0xd,-0x1(%rdx,%r12,1)
    8d26:	4c 89 f1             	mov    %r14,%rcx
    8d29:	4c 8d 70 ff          	lea    -0x1(%rax),%r14
    8d2d:	4c 0f 45 f0          	cmovne %rax,%r14
    8d31:	48 89 c8             	mov    %rcx,%rax
    8d34:	48 89 8c 24 80 00 00 	mov    %rcx,0x80(%rsp)
    8d3b:	00 
    8d3c:	48 85 c9             	test   %rcx,%rcx
    8d3f:	48 8b 5c 24 10       	mov    0x10(%rsp),%rbx
    8d44:	0f 84 be 00 00 00    	je     8e08 <_ZN8aoc_20224main17h99dc0bcfc1489f21E+0x328>
    8d4a:	4d 85 f6             	test   %r14,%r14
    8d4d:	48 8b 8c 24 80 00 00 	mov    0x80(%rsp),%rcx
    8d54:	00 
    8d55:	74 59                	je     8db0 <_ZN8aoc_20224main17h99dc0bcfc1489f21E+0x2d0>
    8d57:	31 db                	xor    %ebx,%ebx
    8d59:	48 3b 8c 24 d0 00 00 	cmp    0xd0(%rsp),%rcx
    8d60:	00 
    8d61:	0f 96 c0             	setbe  %al
    8d64:	0f 87 02 04 00 00    	ja     916c <_ZN8aoc_20224main17h99dc0bcfc1489f21E+0x68c>
    8d6a:	48 89 74 24 78       	mov    %rsi,0x78(%rsp)
    8d6f:	48 8d 3c 8d 00 00 00 	lea    0x0(,%rcx,4),%rdi
    8d76:	00 
    8d77:	88 c3                	mov    %al,%bl
    8d79:	48 c1 e3 02          	shl    $0x2,%rbx
    8d7d:	48 85 ff             	test   %rdi,%rdi
    8d80:	48 89 7c 24 20       	mov    %rdi,0x20(%rsp)
    8d85:	0f 84 e4 00 00 00    	je     8e6f <_ZN8aoc_20224main17h99dc0bcfc1489f21E+0x38f>
    8d8b:	48 89 de             	mov    %rbx,%rsi
    8d8e:	ff 15 e4 9d 04 00    	call   *0x49de4(%rip)        # 52b78 <_GLOBAL_OFFSET_TABLE_+0x280>
    8d94:	48 85 c0             	test   %rax,%rax
    8d97:	0f 85 de 00 00 00    	jne    8e7b <_ZN8aoc_20224main17h99dc0bcfc1489f21E+0x39b>
    8d9d:	e9 a2 03 00 00       	jmp    9144 <_ZN8aoc_20224main17h99dc0bcfc1489f21E+0x664>
    8da2:	66 66 66 66 66 2e 0f 	data16 data16 data16 data16 cs nopw 0x0(%rax,%rax,1)
    8da9:	1f 84 00 00 00 00 00 
    8db0:	48 8b 44 24 18       	mov    0x18(%rsp),%rax
    8db5:	48 89 84 24 a8 00 00 	mov    %rax,0xa8(%rsp)
    8dbc:	00 
    8dbd:	48 89 8c 24 b0 00 00 	mov    %rcx,0xb0(%rsp)
    8dc4:	00 
    8dc5:	48 8d 05 90 8b 03 00 	lea    0x38b90(%rip),%rax        # 4195c <_fini+0x2d34>
    8dcc:	48 89 84 24 b8 00 00 	mov    %rax,0xb8(%rsp)
    8dd3:	00 
    8dd4:	48 c7 84 24 c0 00 00 	movq   $0x1,0xc0(%rsp)
    8ddb:	00 01 00 00 00 
    8de0:	ba 02 00 00 00       	mov    $0x2,%edx
    8de5:	48 8d bc 24 88 00 00 	lea    0x88(%rsp),%rdi
    8dec:	00 
    8ded:	48 8d b4 24 a8 00 00 	lea    0xa8(%rsp),%rsi
    8df4:	00 
    8df5:	e8 16 f9 ff ff       	call   8710 <_ZN5alloc5slice29_$LT$impl$u20$$u5b$T$u5d$$GT$6concat17ha1b2ffa2c9cfb612E>
    8dfa:	48 85 db             	test   %rbx,%rbx
    8dfd:	0f 85 fd 00 00 00    	jne    8f00 <_ZN8aoc_20224main17h99dc0bcfc1489f21E+0x420>
    8e03:	e9 88 fd ff ff       	jmp    8b90 <_ZN8aoc_20224main17h99dc0bcfc1489f21E+0xb0>
    8e08:	48 89 74 24 78       	mov    %rsi,0x78(%rsp)
    8e0d:	bf 04 00 00 00       	mov    $0x4,%edi
    8e12:	be 04 00 00 00       	mov    $0x4,%esi
    8e17:	ff 15 5b 9d 04 00    	call   *0x49d5b(%rip)        # 52b78 <_GLOBAL_OFFSET_TABLE_+0x280>
    8e1d:	48 85 c0             	test   %rax,%rax
    8e20:	0f 84 a8 02 00 00    	je     90ce <_ZN8aoc_20224main17h99dc0bcfc1489f21E+0x5ee>
    8e26:	48 89 c3             	mov    %rax,%rbx
    8e29:	48 8b 7c 24 78       	mov    0x78(%rsp),%rdi
    8e2e:	4c 89 f6             	mov    %r14,%rsi
    8e31:	ff 15 b1 9c 04 00    	call   *0x49cb1(%rip)        # 52ae8 <_GLOBAL_OFFSET_TABLE_+0x1f0>
    8e37:	a8 01                	test   $0x1,%al
    8e39:	0f 85 43 02 00 00    	jne    9082 <_ZN8aoc_20224main17h99dc0bcfc1489f21E+0x5a2>
    8e3f:	48 c1 e8 20          	shr    $0x20,%rax
    8e43:	89 03                	mov    %eax,(%rbx)
    8e45:	48 89 9c 24 88 00 00 	mov    %rbx,0x88(%rsp)
    8e4c:	00 
    8e4d:	0f 28 05 0c 62 03 00 	movaps 0x3620c(%rip),%xmm0        # 3f060 <_fini+0x438>
    8e54:	0f 11 84 24 90 00 00 	movups %xmm0,0x90(%rsp)
    8e5b:	00 
    8e5c:	48 8b 5c 24 10       	mov    0x10(%rsp),%rbx
    8e61:	48 85 db             	test   %rbx,%rbx
    8e64:	0f 85 96 00 00 00    	jne    8f00 <_ZN8aoc_20224main17h99dc0bcfc1489f21E+0x420>
    8e6a:	e9 21 fd ff ff       	jmp    8b90 <_ZN8aoc_20224main17h99dc0bcfc1489f21E+0xb0>
    8e6f:	48 89 d8             	mov    %rbx,%rax
    8e72:	48 85 c0             	test   %rax,%rax
    8e75:	0f 84 c9 02 00 00    	je     9144 <_ZN8aoc_20224main17h99dc0bcfc1489f21E+0x664>
    8e7b:	48 89 c3             	mov    %rax,%rbx
    8e7e:	48 89 c7             	mov    %rax,%rdi
    8e81:	48 8b 74 24 18       	mov    0x18(%rsp),%rsi
    8e86:	48 8b 54 24 20       	mov    0x20(%rsp),%rdx
    8e8b:	ff 15 67 9e 04 00    	call   *0x49e67(%rip)        # 52cf8 <memcpy@GLIBC_2.14>
    8e91:	48 8b 84 24 80 00 00 	mov    0x80(%rsp),%rax
    8e98:	00 
    8e99:	48 89 5c 24 20       	mov    %rbx,0x20(%rsp)
    8e9e:	8b 5c 83 fc          	mov    -0x4(%rbx,%rax,4),%ebx
    8ea2:	48 8b 7c 24 78       	mov    0x78(%rsp),%rdi
    8ea7:	4c 89 f6             	mov    %r14,%rsi
    8eaa:	ff 15 38 9c 04 00    	call   *0x49c38(%rip)        # 52ae8 <_GLOBAL_OFFSET_TABLE_+0x1f0>
    8eb0:	a8 01                	test   $0x1,%al
    8eb2:	0f 85 43 02 00 00    	jne    90fb <_ZN8aoc_20224main17h99dc0bcfc1489f21E+0x61b>
    8eb8:	48 c1 e8 20          	shr    $0x20,%rax
    8ebc:	01 c3                	add    %eax,%ebx
    8ebe:	48 8b 84 24 80 00 00 	mov    0x80(%rsp),%rax
    8ec5:	00 
    8ec6:	48 8b 4c 24 20       	mov    0x20(%rsp),%rcx
    8ecb:	89 5c 81 fc          	mov    %ebx,-0x4(%rcx,%rax,4)
    8ecf:	48 89 8c 24 88 00 00 	mov    %rcx,0x88(%rsp)
    8ed6:	00 
    8ed7:	48 89 84 24 90 00 00 	mov    %rax,0x90(%rsp)
    8ede:	00 
    8edf:	48 89 84 24 98 00 00 	mov    %rax,0x98(%rsp)
    8ee6:	00 
    8ee7:	48 8b 5c 24 10       	mov    0x10(%rsp),%rbx
    8eec:	48 85 db             	test   %rbx,%rbx
    8eef:	0f 84 9b fc ff ff    	je     8b90 <_ZN8aoc_20224main17h99dc0bcfc1489f21E+0xb0>
    8ef5:	66 66 2e 0f 1f 84 00 	data16 cs nopw 0x0(%rax,%rax,1)
    8efc:	00 00 00 00 
    8f00:	48 c1 e3 02          	shl    $0x2,%rbx
    8f04:	ba 04 00 00 00       	mov    $0x4,%edx
    8f09:	48 8b 7c 24 18       	mov    0x18(%rsp),%rdi
    8f0e:	48 89 de             	mov    %rbx,%rsi
    8f11:	ff 15 b1 9c 04 00    	call   *0x49cb1(%rip)        # 52bc8 <_GLOBAL_OFFSET_TABLE_+0x2d0>
    8f17:	e9 74 fc ff ff       	jmp    8b90 <_ZN8aoc_20224main17h99dc0bcfc1489f21E+0xb0>
    8f1c:	48 8d 54 24 30       	lea    0x30(%rsp),%rdx
    8f21:	48 8b 6c 24 18       	mov    0x18(%rsp),%rbp
    8f26:	48 89 ef             	mov    %rbp,%rdi
    8f29:	4c 89 f6             	mov    %r14,%rsi
    8f2c:	e8 ef ee ff ff       	call   7e20 <_ZN5alloc5slice10merge_sort17hc8ddbea8c2553588E>
    8f31:	4d 85 f6             	test   %r14,%r14
    8f34:	0f 84 52 02 00 00    	je     918c <_ZN8aoc_20224main17h99dc0bcfc1489f21E+0x6ac>
    8f3a:	49 83 fe 01          	cmp    $0x1,%r14
    8f3e:	75 0d                	jne    8f4d <_ZN8aoc_20224main17h99dc0bcfc1489f21E+0x46d>
    8f40:	48 89 ac 24 88 00 00 	mov    %rbp,0x88(%rsp)
    8f47:	00 
    8f48:	8b 45 00             	mov    0x0(%rbp),%eax
    8f4b:	eb 4b                	jmp    8f98 <_ZN8aoc_20224main17h99dc0bcfc1489f21E+0x4b8>
    8f4d:	8b 45 00             	mov    0x0(%rbp),%eax
    8f50:	4a 8d 0c b5 00 00 00 	lea    0x0(,%r14,4),%rcx
    8f57:	00 
    8f58:	ba 04 00 00 00       	mov    $0x4,%edx
    8f5d:	48 89 ee             	mov    %rbp,%rsi
    8f60:	8b 7c 15 00          	mov    0x0(%rbp,%rdx,1),%edi
    8f64:	39 f8                	cmp    %edi,%eax
    8f66:	0f 46 c7             	cmovbe %edi,%eax
    8f69:	48 8d 7c 15 00       	lea    0x0(%rbp,%rdx,1),%rdi
    8f6e:	48 0f 46 f7          	cmovbe %rdi,%rsi
    8f72:	48 83 c2 04          	add    $0x4,%rdx
    8f76:	48 39 d1             	cmp    %rdx,%rcx
    8f79:	75 e5                	jne    8f60 <_ZN8aoc_20224main17h99dc0bcfc1489f21E+0x480>
    8f7b:	48 89 b4 24 88 00 00 	mov    %rsi,0x88(%rsp)
    8f82:	00 
    8f83:	8b 45 00             	mov    0x0(%rbp),%eax
    8f86:	49 83 fe 01          	cmp    $0x1,%r14
    8f8a:	74 0c                	je     8f98 <_ZN8aoc_20224main17h99dc0bcfc1489f21E+0x4b8>
    8f8c:	03 45 04             	add    0x4(%rbp),%eax
    8f8f:	49 83 fe 02          	cmp    $0x2,%r14
    8f93:	74 03                	je     8f98 <_ZN8aoc_20224main17h99dc0bcfc1489f21E+0x4b8>
    8f95:	03 45 08             	add    0x8(%rbp),%eax
    8f98:	89 84 24 a4 00 00 00 	mov    %eax,0xa4(%rsp)
    8f9f:	48 8d 84 24 88 00 00 	lea    0x88(%rsp),%rax
    8fa6:	00 
    8fa7:	48 89 84 24 a8 00 00 	mov    %rax,0xa8(%rsp)
    8fae:	00 
    8faf:	48 8d 05 da fa ff ff 	lea    -0x526(%rip),%rax        # 8a90 <_ZN44_$LT$$RF$T$u20$as$u20$core..fmt..Display$GT$3fmt17h44f7618e71e03ad2E>
    8fb6:	48 89 84 24 b0 00 00 	mov    %rax,0xb0(%rsp)
    8fbd:	00 
    8fbe:	48 8d 1d bb 70 04 00 	lea    0x470bb(%rip),%rbx        # 50080 <__do_global_dtors_aux_fini_array_entry+0xb8>
    8fc5:	48 89 5c 24 30       	mov    %rbx,0x30(%rsp)
    8fca:	48 c7 44 24 38 02 00 	movq   $0x2,0x38(%rsp)
    8fd1:	00 00 
    8fd3:	48 c7 44 24 40 00 00 	movq   $0x0,0x40(%rsp)
    8fda:	00 00 
    8fdc:	48 8d 84 24 a8 00 00 	lea    0xa8(%rsp),%rax
    8fe3:	00 
    8fe4:	48 89 44 24 50       	mov    %rax,0x50(%rsp)
    8fe9:	48 c7 44 24 58 01 00 	movq   $0x1,0x58(%rsp)
    8ff0:	00 00 
    8ff2:	48 8d 7c 24 30       	lea    0x30(%rsp),%rdi
    8ff7:	ff 15 d3 99 04 00    	call   *0x499d3(%rip)        # 529d0 <_GLOBAL_OFFSET_TABLE_+0xd8>
    8ffd:	48 8d 84 24 a4 00 00 	lea    0xa4(%rsp),%rax
    9004:	00 
    9005:	48 89 84 24 a8 00 00 	mov    %rax,0xa8(%rsp)
    900c:	00 
    900d:	48 8d 05 0c 53 03 00 	lea    0x3530c(%rip),%rax        # 3e320 <_ZN4core3fmt3num3imp52_$LT$impl$u20$core..fmt..Display$u20$for$u20$u32$GT$3fmt17h7d85153faf7b15f3E>
    9014:	48 89 84 24 b0 00 00 	mov    %rax,0xb0(%rsp)
    901b:	00 
    901c:	48 89 5c 24 30       	mov    %rbx,0x30(%rsp)
    9021:	48 c7 44 24 38 02 00 	movq   $0x2,0x38(%rsp)
    9028:	00 00 
    902a:	48 c7 44 24 40 00 00 	movq   $0x0,0x40(%rsp)
    9031:	00 00 
    9033:	48 8d 84 24 a8 00 00 	lea    0xa8(%rsp),%rax
    903a:	00 
    903b:	48 89 44 24 50       	mov    %rax,0x50(%rsp)
    9040:	48 c7 44 24 58 01 00 	movq   $0x1,0x58(%rsp)
    9047:	00 00 
    9049:	48 8d 7c 24 30       	lea    0x30(%rsp),%rdi
    904e:	ff 15 7c 99 04 00    	call   *0x4997c(%rip)        # 529d0 <_GLOBAL_OFFSET_TABLE_+0xd8>
    9054:	48 8b 74 24 10       	mov    0x10(%rsp),%rsi
    9059:	48 85 f6             	test   %rsi,%rsi
    905c:	74 12                	je     9070 <_ZN8aoc_20224main17h99dc0bcfc1489f21E+0x590>
    905e:	48 c1 e6 02          	shl    $0x2,%rsi
    9062:	ba 04 00 00 00       	mov    $0x4,%edx
    9067:	48 89 ef             	mov    %rbp,%rdi
    906a:	ff 15 58 9b 04 00    	call   *0x49b58(%rip)        # 52bc8 <_GLOBAL_OFFSET_TABLE_+0x2d0>
    9070:	48 81 c4 d8 00 00 00 	add    $0xd8,%rsp
    9077:	5b                   	pop    %rbx
    9078:	41 5c                	pop    %r12
    907a:	41 5d                	pop    %r13
    907c:	41 5e                	pop    %r14
    907e:	41 5f                	pop    %r15
    9080:	5d                   	pop    %rbp
    9081:	c3                   	ret
    9082:	4c 89 6c 24 50       	mov    %r13,0x50(%rsp)
    9087:	48 8b 4c 24 08       	mov    0x8(%rsp),%rcx
    908c:	48 89 4c 24 30       	mov    %rcx,0x30(%rsp)
    9091:	0f b6 4c 24 06       	movzbl 0x6(%rsp),%ecx
    9096:	88 4c 24 71          	mov    %cl,0x71(%rsp)
    909a:	88 a4 24 a8 00 00 00 	mov    %ah,0xa8(%rsp)
    90a1:	48 8d 3d ca 88 03 00 	lea    0x388ca(%rip),%rdi        # 41972 <_fini+0x2d4a>
    90a8:	48 8d 0d b1 6f 04 00 	lea    0x46fb1(%rip),%rcx        # 50060 <__do_global_dtors_aux_fini_array_entry+0x98>
    90af:	4c 8d 05 1a 70 04 00 	lea    0x4701a(%rip),%r8        # 500d0 <__do_global_dtors_aux_fini_array_entry+0x108>
    90b6:	48 8d 94 24 a8 00 00 	lea    0xa8(%rsp),%rdx
    90bd:	00 
    90be:	be 18 00 00 00       	mov    $0x18,%esi
    90c3:	ff 15 4f 99 04 00    	call   *0x4994f(%rip)        # 52a18 <_GLOBAL_OFFSET_TABLE_+0x120>
    90c9:	e9 d7 00 00 00       	jmp    91a5 <_ZN8aoc_20224main17h99dc0bcfc1489f21E+0x6c5>
    90ce:	4c 89 6c 24 50       	mov    %r13,0x50(%rsp)
    90d3:	48 8b 44 24 08       	mov    0x8(%rsp),%rax
    90d8:	48 89 44 24 30       	mov    %rax,0x30(%rsp)
    90dd:	0f b6 44 24 06       	movzbl 0x6(%rsp),%eax
    90e2:	88 44 24 71          	mov    %al,0x71(%rsp)
    90e6:	bf 04 00 00 00       	mov    $0x4,%edi
    90eb:	be 04 00 00 00       	mov    $0x4,%esi
    90f0:	ff 15 fa 9c 04 00    	call   *0x49cfa(%rip)        # 52df0 <_GLOBAL_OFFSET_TABLE_+0x4f8>
    90f6:	e9 aa 00 00 00       	jmp    91a5 <_ZN8aoc_20224main17h99dc0bcfc1489f21E+0x6c5>
    90fb:	4c 89 6c 24 50       	mov    %r13,0x50(%rsp)
    9100:	48 8b 4c 24 08       	mov    0x8(%rsp),%rcx
    9105:	48 89 4c 24 30       	mov    %rcx,0x30(%rsp)
    910a:	0f b6 4c 24 06       	movzbl 0x6(%rsp),%ecx
    910f:	88 4c 24 71          	mov    %cl,0x71(%rsp)
    9113:	88 a4 24 a8 00 00 00 	mov    %ah,0xa8(%rsp)
    911a:	48 8d 3d 3f 88 03 00 	lea    0x3883f(%rip),%rdi        # 41960 <_fini+0x2d38>
    9121:	48 8d 0d 38 6f 04 00 	lea    0x46f38(%rip),%rcx        # 50060 <__do_global_dtors_aux_fini_array_entry+0x98>
    9128:	4c 8d 05 89 6f 04 00 	lea    0x46f89(%rip),%r8        # 500b8 <__do_global_dtors_aux_fini_array_entry+0xf0>
    912f:	48 8d 94 24 a8 00 00 	lea    0xa8(%rsp),%rdx
    9136:	00 
    9137:	be 12 00 00 00       	mov    $0x12,%esi
    913c:	ff 15 d6 98 04 00    	call   *0x498d6(%rip)        # 52a18 <_GLOBAL_OFFSET_TABLE_+0x120>
    9142:	eb 61                	jmp    91a5 <_ZN8aoc_20224main17h99dc0bcfc1489f21E+0x6c5>
    9144:	4c 89 6c 24 50       	mov    %r13,0x50(%rsp)
    9149:	48 8b 44 24 08       	mov    0x8(%rsp),%rax
    914e:	48 89 44 24 30       	mov    %rax,0x30(%rsp)
    9153:	0f b6 44 24 06       	movzbl 0x6(%rsp),%eax
    9158:	88 44 24 71          	mov    %al,0x71(%rsp)
    915c:	48 8b 7c 24 20       	mov    0x20(%rsp),%rdi
    9161:	48 89 de             	mov    %rbx,%rsi
    9164:	ff 15 86 9c 04 00    	call   *0x49c86(%rip)        # 52df0 <_GLOBAL_OFFSET_TABLE_+0x4f8>
    916a:	eb 39                	jmp    91a5 <_ZN8aoc_20224main17h99dc0bcfc1489f21E+0x6c5>
    916c:	4c 89 6c 24 50       	mov    %r13,0x50(%rsp)
    9171:	48 8b 44 24 08       	mov    0x8(%rsp),%rax
    9176:	48 89 44 24 30       	mov    %rax,0x30(%rsp)
    917b:	0f b6 44 24 06       	movzbl 0x6(%rsp),%eax
    9180:	88 44 24 71          	mov    %al,0x71(%rsp)
    9184:	ff 15 c6 97 04 00    	call   *0x497c6(%rip)        # 52950 <_GLOBAL_OFFSET_TABLE_+0x58>
    918a:	eb 19                	jmp    91a5 <_ZN8aoc_20224main17h99dc0bcfc1489f21E+0x6c5>
    918c:	48 8d 3d ad 87 03 00 	lea    0x387ad(%rip),%rdi        # 41940 <_fini+0x2d18>
    9193:	48 8d 15 06 6f 04 00 	lea    0x46f06(%rip),%rdx        # 500a0 <__do_global_dtors_aux_fini_array_entry+0xd8>
    919a:	be 0f 00 00 00       	mov    $0xf,%esi
    919f:	ff 15 83 99 04 00    	call   *0x49983(%rip)        # 52b28 <_GLOBAL_OFFSET_TABLE_+0x230>
    91a5:	0f 0b                	ud2
    91a7:	49 89 c6             	mov    %rax,%r14
    91aa:	eb 1b                	jmp    91c7 <_ZN8aoc_20224main17h99dc0bcfc1489f21E+0x6e7>
    91ac:	49 89 c6             	mov    %rax,%r14
    91af:	4c 89 6c 24 50       	mov    %r13,0x50(%rsp)
    91b4:	48 8b 44 24 08       	mov    0x8(%rsp),%rax
    91b9:	48 89 44 24 30       	mov    %rax,0x30(%rsp)
    91be:	0f b6 44 24 06       	movzbl 0x6(%rsp),%eax
    91c3:	88 44 24 71          	mov    %al,0x71(%rsp)
    91c7:	48 8b 7c 24 20       	mov    0x20(%rsp),%rdi
    91cc:	48 8b b4 24 80 00 00 	mov    0x80(%rsp),%rsi
    91d3:	00 
    91d4:	e8 c7 f8 ff ff       	call   8aa0 <_ZN4core3ptr47drop_in_place$LT$alloc..vec..Vec$LT$u32$GT$$GT$17h90166703e603d935E>
    91d9:	eb 74                	jmp    924f <_ZN8aoc_20224main17h99dc0bcfc1489f21E+0x76f>
    91db:	49 89 c6             	mov    %rax,%r14
    91de:	48 89 ef             	mov    %rbp,%rdi
    91e1:	eb 71                	jmp    9254 <_ZN8aoc_20224main17h99dc0bcfc1489f21E+0x774>
    91e3:	49 89 c6             	mov    %rax,%r14
    91e6:	4c 89 6c 24 50       	mov    %r13,0x50(%rsp)
    91eb:	48 8b 44 24 08       	mov    0x8(%rsp),%rax
    91f0:	48 89 44 24 30       	mov    %rax,0x30(%rsp)
    91f5:	0f b6 44 24 06       	movzbl 0x6(%rsp),%eax
    91fa:	88 44 24 71          	mov    %al,0x71(%rsp)
    91fe:	eb 08                	jmp    9208 <_ZN8aoc_20224main17h99dc0bcfc1489f21E+0x728>
    9200:	49 89 c6             	mov    %rax,%r14
    9203:	eb 4a                	jmp    924f <_ZN8aoc_20224main17h99dc0bcfc1489f21E+0x76f>
    9205:	49 89 c6             	mov    %rax,%r14
    9208:	48 89 df             	mov    %rbx,%rdi
    920b:	e8 c0 f8 ff ff       	call   8ad0 <_ZN5alloc5alloc8box_free17h1dfad9a610729d1aE>
    9210:	eb 3d                	jmp    924f <_ZN8aoc_20224main17h99dc0bcfc1489f21E+0x76f>
    9212:	49 89 c6             	mov    %rax,%r14
    9215:	eb 38                	jmp    924f <_ZN8aoc_20224main17h99dc0bcfc1489f21E+0x76f>
    9217:	49 89 c6             	mov    %rax,%r14
    921a:	4c 89 6c 24 50       	mov    %r13,0x50(%rsp)
    921f:	48 8b 44 24 08       	mov    0x8(%rsp),%rax
    9224:	48 89 44 24 30       	mov    %rax,0x30(%rsp)
    9229:	0f b6 44 24 06       	movzbl 0x6(%rsp),%eax
    922e:	88 44 24 71          	mov    %al,0x71(%rsp)
    9232:	eb 1b                	jmp    924f <_ZN8aoc_20224main17h99dc0bcfc1489f21E+0x76f>
    9234:	49 89 c6             	mov    %rax,%r14
    9237:	48 8b 44 24 08       	mov    0x8(%rsp),%rax
    923c:	48 89 44 24 30       	mov    %rax,0x30(%rsp)
    9241:	0f b6 44 24 06       	movzbl 0x6(%rsp),%eax
    9246:	88 44 24 71          	mov    %al,0x71(%rsp)
    924a:	4c 89 6c 24 50       	mov    %r13,0x50(%rsp)
    924f:	48 8b 7c 24 18       	mov    0x18(%rsp),%rdi
    9254:	48 8b 74 24 10       	mov    0x10(%rsp),%rsi
    9259:	e8 42 f8 ff ff       	call   8aa0 <_ZN4core3ptr47drop_in_place$LT$alloc..vec..Vec$LT$u32$GT$$GT$17h90166703e603d935E>
    925e:	4c 89 f7             	mov    %r14,%rdi
    9261:	e8 da cd ff ff       	call   6040 <_Unwind_Resume@plt>
    9266:	0f 0b                	ud2
    9268:	0f 1f 84 00 00 00 00 	nopl   0x0(%rax,%rax,1)
    926f:	00 

0000000000009270 <main>:
    9270:	50                   	push   %rax
    9271:	48 89 f1             	mov    %rsi,%rcx
    9274:	48 63 d7             	movslq %edi,%rdx
    9277:	48 8d 05 62 f8 ff ff 	lea    -0x79e(%rip),%rax        # 8ae0 <_ZN8aoc_20224main17h99dc0bcfc1489f21E>
    927e:	48 89 04 24          	mov    %rax,(%rsp)
    9282:	48 8d 35 5f 6e 04 00 	lea    0x46e5f(%rip),%rsi        # 500e8 <anon.1e772d87cb7ab8eb3bdc2c5d344d7c2b.0.llvm.13921790192248287823>
    9289:	48 89 e7             	mov    %rsp,%rdi
    928c:	41 b8 02 00 00 00    	mov    $0x2,%r8d
    9292:	ff 15 78 98 04 00    	call   *0x49878(%rip)        # 52b10 <_GLOBAL_OFFSET_TABLE_+0x218>
    9298:	59                   	pop    %rcx
    9299:	c3                   	ret
    929a:	66 0f 1f 44 00 00    	nopw   0x0(%rax,%rax,1)

00000000000092a0 <_ZN3std2rt10lang_start28_$u7b$$u7b$closure$u7d$$u7d$17h73fe70f5d1895e08E.llvm.13921790192248287823>:
    92a0:	50                   	push   %rax
    92a1:	48 8b 3f             	mov    (%rdi),%rdi
    92a4:	e8 d7 f7 ff ff       	call   8a80 <_ZN3std10sys_common9backtrace28__rust_begin_short_backtrace17h64e43f16d242678fE>
    92a9:	31 c0                	xor    %eax,%eax
    92ab:	59                   	pop    %rcx
    92ac:	c3                   	ret
    92ad:	0f 1f 00             	nopl   (%rax)

00000000000092b0 <_ZN4core3ops8function6FnOnce40call_once$u7b$$u7b$vtable.shim$u7d$$u7d$17h4ed10df63b9ebcfbE.llvm.13921790192248287823>:
    92b0:	50                   	push   %rax
    92b1:	48 8b 3f             	mov    (%rdi),%rdi
    92b4:	e8 c7 f7 ff ff       	call   8a80 <_ZN3std10sys_common9backtrace28__rust_begin_short_backtrace17h64e43f16d242678fE>
    92b9:	31 c0                	xor    %eax,%eax
    92bb:	59                   	pop    %rcx
    92bc:	c3                   	ret
    92bd:	0f 1f 00             	nopl   (%rax)

00000000000092c0 <_ZN4core3ptr85drop_in_place$LT$std..rt..lang_start$LT$$LP$$RP$$GT$..$u7b$$u7b$closure$u7d$$u7d$$GT$17hf551b3c6effd1e83E.llvm.13921790192248287823>:
    92c0:	c3                   	ret
    92c1:	66 2e 0f 1f 84 00 00 	cs nopw 0x0(%rax,%rax,1)
    92c8:	00 00 00 
    92cb:	0f 1f 44 00 00       	nopl   0x0(%rax,%rax,1)

00000000000092d0 <__rust_alloc>:
    92d0:	e9 2b 80 01 00       	jmp    21300 <__rdl_alloc>
    92d5:	66 2e 0f 1f 84 00 00 	cs nopw 0x0(%rax,%rax,1)
    92dc:	00 00 00 
    92df:	90                   	nop

00000000000092e0 <__rust_dealloc>:
    92e0:	e9 6b 80 01 00       	jmp    21350 <__rdl_dealloc>
    92e5:	66 2e 0f 1f 84 00 00 	cs nopw 0x0(%rax,%rax,1)
    92ec:	00 00 00 
    92ef:	90                   	nop

00000000000092f0 <__rust_realloc>:
    92f0:	e9 6b 80 01 00       	jmp    21360 <__rdl_realloc>
    92f5:	66 2e 0f 1f 84 00 00 	cs nopw 0x0(%rax,%rax,1)
    92fc:	00 00 00 
    92ff:	90                   	nop

0000000000009300 <__rust_alloc_zeroed>:
    9300:	e9 fb 80 01 00       	jmp    21400 <__rdl_alloc_zeroed>
    9305:	66 2e 0f 1f 84 00 00 	cs nopw 0x0(%rax,%rax,1)
    930c:	00 00 00 
    930f:	90                   	nop

0000000000009310 <__rust_alloc_error_handler>:
    9310:	e9 db f7 02 00       	jmp    38af0 <__rg_oom>
    9315:	66 2e 0f 1f 84 00 00 	cs nopw 0x0(%rax,%rax,1)
    931c:	00 00 00 
    931f:	90                   	nop

0000000000009320 <_ZN36_$LT$T$u20$as$u20$core..any..Any$GT$7type_id17h05241a39b034e8f0E>:
    9320:	48 b8 9a 69 6f d8 72 	movabs $0x37b6cb72d86f699a,%rax
    9327:	cb b6 37 
    932a:	c3                   	ret
    932b:	0f 1f 44 00 00       	nopl   0x0(%rax,%rax,1)

0000000000009330 <_ZN36_$LT$T$u20$as$u20$core..any..Any$GT$7type_id17h67d5ebd0c33e5603E>:
    9330:	48 b8 eb c8 a4 66 c7 	movabs $0x7444cec766a4c8eb,%rax
    9337:	ce 44 74 
    933a:	c3                   	ret
    933b:	0f 1f 44 00 00       	nopl   0x0(%rax,%rax,1)

0000000000009340 <_ZN36_$LT$T$u20$as$u20$core..any..Any$GT$7type_id17he279cfc7be59cd26E>:
    9340:	48 b8 05 8b 65 e6 65 	movabs $0x86870865e6658b05,%rax
    9347:	08 87 86 
    934a:	c3                   	ret
    934b:	0f 1f 44 00 00       	nopl   0x0(%rax,%rax,1)

0000000000009350 <_ZN42_$LT$$RF$T$u20$as$u20$core..fmt..Debug$GT$3fmt17h01e6a155874e8b5fE>:
    9350:	48 8b 07             	mov    (%rdi),%rax
    9353:	48 8b 38             	mov    (%rax),%rdi
    9356:	ff 25 fc 98 04 00    	jmp    *0x498fc(%rip)        # 52c58 <_GLOBAL_OFFSET_TABLE_+0x360>
    935c:	0f 1f 40 00          	nopl   0x0(%rax)

0000000000009360 <_ZN42_$LT$$RF$T$u20$as$u20$core..fmt..Debug$GT$3fmt17h3e2c57c132b1996dE>:
    9360:	48 8b 07             	mov    (%rdi),%rax
    9363:	48 8b 38             	mov    (%rax),%rdi
    9366:	48 8b 40 08          	mov    0x8(%rax),%rax
    936a:	48 8b 40 18          	mov    0x18(%rax),%rax
    936e:	ff e0                	jmp    *%rax

0000000000009370 <_ZN42_$LT$$RF$T$u20$as$u20$core..fmt..Debug$GT$3fmt17h845a7572d963515aE>:
    9370:	48 89 f2             	mov    %rsi,%rdx
    9373:	48 8b 07             	mov    (%rdi),%rax
    9376:	48 8b 77 08          	mov    0x8(%rdi),%rsi
    937a:	48 89 c7             	mov    %rax,%rdi
    937d:	ff 25 85 97 04 00    	jmp    *0x49785(%rip)        # 52b08 <_GLOBAL_OFFSET_TABLE_+0x210>
    9383:	66 2e 0f 1f 84 00 00 	cs nopw 0x0(%rax,%rax,1)
    938a:	00 00 00 
    938d:	0f 1f 00             	nopl   (%rax)

0000000000009390 <_ZN42_$LT$$RF$T$u20$as$u20$core..fmt..Debug$GT$3fmt17h8c5d215ef9d5f691E>:
    9390:	41 56                	push   %r14
    9392:	53                   	push   %rbx
    9393:	50                   	push   %rax
    9394:	48 89 f3             	mov    %rsi,%rbx
    9397:	4c 8b 37             	mov    (%rdi),%r14
    939a:	48 89 f7             	mov    %rsi,%rdi
    939d:	ff 15 5d 96 04 00    	call   *0x4965d(%rip)        # 52a00 <_GLOBAL_OFFSET_TABLE_+0x108>
    93a3:	84 c0                	test   %al,%al
    93a5:	74 13                	je     93ba <_ZN42_$LT$$RF$T$u20$as$u20$core..fmt..Debug$GT$3fmt17h8c5d215ef9d5f691E+0x2a>
    93a7:	4c 89 f7             	mov    %r14,%rdi
    93aa:	48 89 de             	mov    %rbx,%rsi
    93ad:	48 83 c4 08          	add    $0x8,%rsp
    93b1:	5b                   	pop    %rbx
    93b2:	41 5e                	pop    %r14
    93b4:	ff 25 9e 96 04 00    	jmp    *0x4969e(%rip)        # 52a58 <_GLOBAL_OFFSET_TABLE_+0x160>
    93ba:	48 89 df             	mov    %rbx,%rdi
    93bd:	ff 15 dd 9b 04 00    	call   *0x49bdd(%rip)        # 52fa0 <_GLOBAL_OFFSET_TABLE_+0x6a8>
    93c3:	4c 89 f7             	mov    %r14,%rdi
    93c6:	48 89 de             	mov    %rbx,%rsi
    93c9:	48 83 c4 08          	add    $0x8,%rsp
    93cd:	84 c0                	test   %al,%al
    93cf:	74 09                	je     93da <_ZN42_$LT$$RF$T$u20$as$u20$core..fmt..Debug$GT$3fmt17h8c5d215ef9d5f691E+0x4a>
    93d1:	5b                   	pop    %rbx
    93d2:	41 5e                	pop    %r14
    93d4:	ff 25 2e 96 04 00    	jmp    *0x4962e(%rip)        # 52a08 <_GLOBAL_OFFSET_TABLE_+0x110>
    93da:	5b                   	pop    %rbx
    93db:	41 5e                	pop    %r14
    93dd:	ff 25 95 96 04 00    	jmp    *0x49695(%rip)        # 52a78 <_GLOBAL_OFFSET_TABLE_+0x180>
    93e3:	66 2e 0f 1f 84 00 00 	cs nopw 0x0(%rax,%rax,1)
    93ea:	00 00 00 
    93ed:	0f 1f 00             	nopl   (%rax)

00000000000093f0 <_ZN42_$LT$$RF$T$u20$as$u20$core..fmt..Debug$GT$3fmt17haafb7162ff9f9b25E>:
    93f0:	48 89 f7             	mov    %rsi,%rdi
    93f3:	48 8d 35 66 96 03 00 	lea    0x39666(%rip),%rsi        # 42a60 <_fini+0x3e38>
    93fa:	ba 02 00 00 00       	mov    $0x2,%edx
    93ff:	ff 25 cb 9b 04 00    	jmp    *0x49bcb(%rip)        # 52fd0 <_GLOBAL_OFFSET_TABLE_+0x6d8>
    9405:	66 2e 0f 1f 84 00 00 	cs nopw 0x0(%rax,%rax,1)
    940c:	00 00 00 
    940f:	90                   	nop

0000000000009410 <_ZN42_$LT$$RF$T$u20$as$u20$core..fmt..Debug$GT$3fmt17hab933ef0d8409e00E>:
    9410:	48 8b 3f             	mov    (%rdi),%rdi
    9413:	ff 25 6f 9b 04 00    	jmp    *0x49b6f(%rip)        # 52f88 <_GLOBAL_OFFSET_TABLE_+0x690>
    9419:	0f 1f 80 00 00 00 00 	nopl   0x0(%rax)

0000000000009420 <_ZN42_$LT$$RF$T$u20$as$u20$core..fmt..Debug$GT$3fmt17hd5d4ab875b8909faE>:
    9420:	41 56                	push   %r14
    9422:	53                   	push   %rbx
    9423:	50                   	push   %rax
    9424:	48 89 f3             	mov    %rsi,%rbx
    9427:	4c 8b 37             	mov    (%rdi),%r14
    942a:	48 89 f7             	mov    %rsi,%rdi
    942d:	ff 15 cd 95 04 00    	call   *0x495cd(%rip)        # 52a00 <_GLOBAL_OFFSET_TABLE_+0x108>
    9433:	84 c0                	test   %al,%al
    9435:	74 13                	je     944a <_ZN42_$LT$$RF$T$u20$as$u20$core..fmt..Debug$GT$3fmt17hd5d4ab875b8909faE+0x2a>
    9437:	4c 89 f7             	mov    %r14,%rdi
    943a:	48 89 de             	mov    %rbx,%rsi
    943d:	48 83 c4 08          	add    $0x8,%rsp
    9441:	5b                   	pop    %rbx
    9442:	41 5e                	pop    %r14
    9444:	ff 25 06 99 04 00    	jmp    *0x49906(%rip)        # 52d50 <_GLOBAL_OFFSET_TABLE_+0x458>
    944a:	48 89 df             	mov    %rbx,%rdi
    944d:	ff 15 4d 9b 04 00    	call   *0x49b4d(%rip)        # 52fa0 <_GLOBAL_OFFSET_TABLE_+0x6a8>
    9453:	4c 89 f7             	mov    %r14,%rdi
    9456:	48 89 de             	mov    %rbx,%rsi
    9459:	48 83 c4 08          	add    $0x8,%rsp
    945d:	84 c0                	test   %al,%al
    945f:	74 09                	je     946a <_ZN42_$LT$$RF$T$u20$as$u20$core..fmt..Debug$GT$3fmt17hd5d4ab875b8909faE+0x4a>
    9461:	5b                   	pop    %rbx
    9462:	41 5e                	pop    %r14
    9464:	ff 25 9e 98 04 00    	jmp    *0x4989e(%rip)        # 52d08 <_GLOBAL_OFFSET_TABLE_+0x410>
    946a:	5b                   	pop    %rbx
    946b:	41 5e                	pop    %r14
    946d:	ff 25 3d 97 04 00    	jmp    *0x4973d(%rip)        # 52bb0 <_GLOBAL_OFFSET_TABLE_+0x2b8>
    9473:	66 2e 0f 1f 84 00 00 	cs nopw 0x0(%rax,%rax,1)
    947a:	00 00 00 
    947d:	0f 1f 00             	nopl   (%rax)

0000000000009480 <_ZN44_$LT$$RF$T$u20$as$u20$core..fmt..Display$GT$3fmt17h7d9a53cf7057a740E>:
    9480:	48 89 f2             	mov    %rsi,%rdx
    9483:	48 8b 07             	mov    (%rdi),%rax
    9486:	48 8b 77 08          	mov    0x8(%rdi),%rsi
    948a:	48 89 c7             	mov    %rax,%rdi
    948d:	ff 25 1d 96 04 00    	jmp    *0x4961d(%rip)        # 52ab0 <_GLOBAL_OFFSET_TABLE_+0x1b8>
    9493:	66 2e 0f 1f 84 00 00 	cs nopw 0x0(%rax,%rax,1)
    949a:	00 00 00 
    949d:	0f 1f 00             	nopl   (%rax)

00000000000094a0 <_ZN44_$LT$$RF$T$u20$as$u20$core..fmt..Display$GT$3fmt17h9a8f5aa91da0dfcbE>:
    94a0:	48 8b 3f             	mov    (%rdi),%rdi
    94a3:	ff 25 97 96 04 00    	jmp    *0x49697(%rip)        # 52b40 <_GLOBAL_OFFSET_TABLE_+0x248>
    94a9:	0f 1f 80 00 00 00 00 	nopl   0x0(%rax)

00000000000094b0 <_ZN4core3fmt3num50_$LT$impl$u20$core..fmt..Debug$u20$for$u20$i32$GT$3fmt17h346c3b89aef5caddE>:
    94b0:	41 56                	push   %r14
    94b2:	53                   	push   %rbx
    94b3:	50                   	push   %rax
    94b4:	48 89 f3             	mov    %rsi,%rbx
    94b7:	49 89 fe             	mov    %rdi,%r14
    94ba:	48 89 f7             	mov    %rsi,%rdi
    94bd:	ff 15 3d 95 04 00    	call   *0x4953d(%rip)        # 52a00 <_GLOBAL_OFFSET_TABLE_+0x108>
    94c3:	84 c0                	test   %al,%al
    94c5:	74 13                	je     94da <_ZN4core3fmt3num50_$LT$impl$u20$core..fmt..Debug$u20$for$u20$i32$GT$3fmt17h346c3b89aef5caddE+0x2a>
    94c7:	4c 89 f7             	mov    %r14,%rdi
    94ca:	48 89 de             	mov    %rbx,%rsi
    94cd:	48 83 c4 08          	add    $0x8,%rsp
    94d1:	5b                   	pop    %rbx
    94d2:	41 5e                	pop    %r14
    94d4:	ff 25 7e 95 04 00    	jmp    *0x4957e(%rip)        # 52a58 <_GLOBAL_OFFSET_TABLE_+0x160>
    94da:	48 89 df             	mov    %rbx,%rdi
    94dd:	ff 15 bd 9a 04 00    	call   *0x49abd(%rip)        # 52fa0 <_GLOBAL_OFFSET_TABLE_+0x6a8>
    94e3:	4c 89 f7             	mov    %r14,%rdi
    94e6:	48 89 de             	mov    %rbx,%rsi
    94e9:	48 83 c4 08          	add    $0x8,%rsp
    94ed:	84 c0                	test   %al,%al
    94ef:	74 09                	je     94fa <_ZN4core3fmt3num50_$LT$impl$u20$core..fmt..Debug$u20$for$u20$i32$GT$3fmt17h346c3b89aef5caddE+0x4a>
    94f1:	5b                   	pop    %rbx
    94f2:	41 5e                	pop    %r14
    94f4:	ff 25 0e 95 04 00    	jmp    *0x4950e(%rip)        # 52a08 <_GLOBAL_OFFSET_TABLE_+0x110>
    94fa:	5b                   	pop    %rbx
    94fb:	41 5e                	pop    %r14
    94fd:	ff 25 75 95 04 00    	jmp    *0x49575(%rip)        # 52a78 <_GLOBAL_OFFSET_TABLE_+0x180>
    9503:	66 2e 0f 1f 84 00 00 	cs nopw 0x0(%rax,%rax,1)
    950a:	00 00 00 
    950d:	0f 1f 00             	nopl   (%rax)

0000000000009510 <_ZN4core3fmt5Write10write_char17h3a2e1162f0d2b2a3E>:
    9510:	50                   	push   %rax
    9511:	c7 44 24 04 00 00 00 	movl   $0x0,0x4(%rsp)
    9518:	00 
    9519:	81 fe 80 00 00 00    	cmp    $0x80,%esi
    951f:	73 16                	jae    9537 <_ZN4core3fmt5Write10write_char17h3a2e1162f0d2b2a3E+0x27>
    9521:	40 88 74 24 04       	mov    %sil,0x4(%rsp)
    9526:	ba 01 00 00 00       	mov    $0x1,%edx
    952b:	48 8d 74 24 04       	lea    0x4(%rsp),%rsi
    9530:	e8 5b 4f 01 00       	call   1e490 <_ZN80_$LT$std..io..Write..write_fmt..Adapter$LT$T$GT$$u20$as$u20$core..fmt..Write$GT$9write_str17h95db9e9996a6d2a9E>
    9535:	59                   	pop    %rcx
    9536:	c3                   	ret
    9537:	89 f0                	mov    %esi,%eax
    9539:	81 fe 00 08 00 00    	cmp    $0x800,%esi
    953f:	73 27                	jae    9568 <_ZN4core3fmt5Write10write_char17h3a2e1162f0d2b2a3E+0x58>
    9541:	c1 e8 06             	shr    $0x6,%eax
    9544:	0c c0                	or     $0xc0,%al
    9546:	88 44 24 04          	mov    %al,0x4(%rsp)
    954a:	40 80 e6 3f          	and    $0x3f,%sil
    954e:	40 80 ce 80          	or     $0x80,%sil
    9552:	40 88 74 24 05       	mov    %sil,0x5(%rsp)
    9557:	ba 02 00 00 00       	mov    $0x2,%edx
    955c:	48 8d 74 24 04       	lea    0x4(%rsp),%rsi
    9561:	e8 2a 4f 01 00       	call   1e490 <_ZN80_$LT$std..io..Write..write_fmt..Adapter$LT$T$GT$$u20$as$u20$core..fmt..Write$GT$9write_str17h95db9e9996a6d2a9E>
    9566:	59                   	pop    %rcx
    9567:	c3                   	ret
    9568:	81 fe 00 00 01 00    	cmp    $0x10000,%esi
    956e:	73 34                	jae    95a4 <_ZN4core3fmt5Write10write_char17h3a2e1162f0d2b2a3E+0x94>
    9570:	c1 e8 0c             	shr    $0xc,%eax
    9573:	0c e0                	or     $0xe0,%al
    9575:	88 44 24 04          	mov    %al,0x4(%rsp)
    9579:	89 f0                	mov    %esi,%eax
    957b:	c1 e8 06             	shr    $0x6,%eax
    957e:	24 3f                	and    $0x3f,%al
    9580:	0c 80                	or     $0x80,%al
    9582:	88 44 24 05          	mov    %al,0x5(%rsp)
    9586:	40 80 e6 3f          	and    $0x3f,%sil
    958a:	40 80 ce 80          	or     $0x80,%sil
    958e:	40 88 74 24 06       	mov    %sil,0x6(%rsp)
    9593:	ba 03 00 00 00       	mov    $0x3,%edx
    9598:	48 8d 74 24 04       	lea    0x4(%rsp),%rsi
    959d:	e8 ee 4e 01 00       	call   1e490 <_ZN80_$LT$std..io..Write..write_fmt..Adapter$LT$T$GT$$u20$as$u20$core..fmt..Write$GT$9write_str17h95db9e9996a6d2a9E>
    95a2:	59                   	pop    %rcx
    95a3:	c3                   	ret
    95a4:	c1 e8 12             	shr    $0x12,%eax
    95a7:	24 07                	and    $0x7,%al
    95a9:	0c f0                	or     $0xf0,%al
    95ab:	88 44 24 04          	mov    %al,0x4(%rsp)
    95af:	89 f0                	mov    %esi,%eax
    95b1:	c1 e8 0c             	shr    $0xc,%eax
    95b4:	24 3f                	and    $0x3f,%al
    95b6:	0c 80                	or     $0x80,%al
    95b8:	88 44 24 05          	mov    %al,0x5(%rsp)
    95bc:	89 f0                	mov    %esi,%eax
    95be:	c1 e8 06             	shr    $0x6,%eax
    95c1:	24 3f                	and    $0x3f,%al
    95c3:	0c 80                	or     $0x80,%al
    95c5:	88 44 24 06          	mov    %al,0x6(%rsp)
    95c9:	40 80 e6 3f          	and    $0x3f,%sil
    95cd:	40 80 ce 80          	or     $0x80,%sil
    95d1:	40 88 74 24 07       	mov    %sil,0x7(%rsp)
    95d6:	ba 04 00 00 00       	mov    $0x4,%edx
    95db:	48 8d 74 24 04       	lea    0x4(%rsp),%rsi
    95e0:	e8 ab 4e 01 00       	call   1e490 <_ZN80_$LT$std..io..Write..write_fmt..Adapter$LT$T$GT$$u20$as$u20$core..fmt..Write$GT$9write_str17h95db9e9996a6d2a9E>
    95e5:	59                   	pop    %rcx
    95e6:	c3                   	ret
    95e7:	66 0f 1f 84 00 00 00 	nopw   0x0(%rax,%rax,1)
    95ee:	00 00 

00000000000095f0 <_ZN4core3fmt5Write10write_char17hd4bec6bfc748abceE>:
    95f0:	50                   	push   %rax
    95f1:	c7 44 24 04 00 00 00 	movl   $0x0,0x4(%rsp)
    95f8:	00 
    95f9:	81 fe 80 00 00 00    	cmp    $0x80,%esi
    95ff:	73 16                	jae    9617 <_ZN4core3fmt5Write10write_char17hd4bec6bfc748abceE+0x27>
    9601:	40 88 74 24 04       	mov    %sil,0x4(%rsp)
    9606:	ba 01 00 00 00       	mov    $0x1,%edx
    960b:	48 8d 74 24 04       	lea    0x4(%rsp),%rsi
    9610:	e8 db 4f 01 00       	call   1e5f0 <_ZN80_$LT$std..io..Write..write_fmt..Adapter$LT$T$GT$$u20$as$u20$core..fmt..Write$GT$9write_str17hea9c2b89847ef1adE>
    9615:	59                   	pop    %rcx
    9616:	c3                   	ret
    9617:	89 f0                	mov    %esi,%eax
    9619:	81 fe 00 08 00 00    	cmp    $0x800,%esi
    961f:	73 27                	jae    9648 <_ZN4core3fmt5Write10write_char17hd4bec6bfc748abceE+0x58>
    9621:	c1 e8 06             	shr    $0x6,%eax
    9624:	0c c0                	or     $0xc0,%al
    9626:	88 44 24 04          	mov    %al,0x4(%rsp)
    962a:	40 80 e6 3f          	and    $0x3f,%sil
    962e:	40 80 ce 80          	or     $0x80,%sil
    9632:	40 88 74 24 05       	mov    %sil,0x5(%rsp)
    9637:	ba 02 00 00 00       	mov    $0x2,%edx
    963c:	48 8d 74 24 04       	lea    0x4(%rsp),%rsi
    9641:	e8 aa 4f 01 00       	call   1e5f0 <_ZN80_$LT$std..io..Write..write_fmt..Adapter$LT$T$GT$$u20$as$u20$core..fmt..Write$GT$9write_str17hea9c2b89847ef1adE>
    9646:	59                   	pop    %rcx
    9647:	c3                   	ret
    9648:	81 fe 00 00 01 00    	cmp    $0x10000,%esi
    964e:	73 34                	jae    9684 <_ZN4core3fmt5Write10write_char17hd4bec6bfc748abceE+0x94>
    9650:	c1 e8 0c             	shr    $0xc,%eax
    9653:	0c e0                	or     $0xe0,%al
    9655:	88 44 24 04          	mov    %al,0x4(%rsp)
    9659:	89 f0                	mov    %esi,%eax
    965b:	c1 e8 06             	shr    $0x6,%eax
    965e:	24 3f                	and    $0x3f,%al
    9660:	0c 80                	or     $0x80,%al
    9662:	88 44 24 05          	mov    %al,0x5(%rsp)
    9666:	40 80 e6 3f          	and    $0x3f,%sil
    966a:	40 80 ce 80          	or     $0x80,%sil
    966e:	40 88 74 24 06       	mov    %sil,0x6(%rsp)
    9673:	ba 03 00 00 00       	mov    $0x3,%edx
    9678:	48 8d 74 24 04       	lea    0x4(%rsp),%rsi
    967d:	e8 6e 4f 01 00       	call   1e5f0 <_ZN80_$LT$std..io..Write..write_fmt..Adapter$LT$T$GT$$u20$as$u20$core..fmt..Write$GT$9write_str17hea9c2b89847ef1adE>
    9682:	59                   	pop    %rcx
    9683:	c3                   	ret
    9684:	c1 e8 12             	shr    $0x12,%eax
    9687:	24 07                	and    $0x7,%al
    9689:	0c f0                	or     $0xf0,%al
    968b:	88 44 24 04          	mov    %al,0x4(%rsp)
    968f:	89 f0                	mov    %esi,%eax
    9691:	c1 e8 0c             	shr    $0xc,%eax
    9694:	24 3f                	and    $0x3f,%al
    9696:	0c 80                	or     $0x80,%al
    9698:	88 44 24 05          	mov    %al,0x5(%rsp)
    969c:	89 f0                	mov    %esi,%eax
    969e:	c1 e8 06             	shr    $0x6,%eax
    96a1:	24 3f                	and    $0x3f,%al
    96a3:	0c 80                	or     $0x80,%al
    96a5:	88 44 24 06          	mov    %al,0x6(%rsp)
    96a9:	40 80 e6 3f          	and    $0x3f,%sil
    96ad:	40 80 ce 80          	or     $0x80,%sil
    96b1:	40 88 74 24 07       	mov    %sil,0x7(%rsp)
    96b6:	ba 04 00 00 00       	mov    $0x4,%edx
    96bb:	48 8d 74 24 04       	lea    0x4(%rsp),%rsi
    96c0:	e8 2b 4f 01 00       	call   1e5f0 <_ZN80_$LT$std..io..Write..write_fmt..Adapter$LT$T$GT$$u20$as$u20$core..fmt..Write$GT$9write_str17hea9c2b89847ef1adE>
    96c5:	59                   	pop    %rcx
    96c6:	c3                   	ret
    96c7:	66 0f 1f 84 00 00 00 	nopw   0x0(%rax,%rax,1)
    96ce:	00 00 

00000000000096d0 <_ZN4core3fmt5Write10write_char17hf3fb4bf249e3b08bE>:
    96d0:	41 57                	push   %r15
    96d2:	41 56                	push   %r14
    96d4:	53                   	push   %rbx
    96d5:	48 83 ec 10          	sub    $0x10,%rsp
    96d9:	c7 44 24 0c 00 00 00 	movl   $0x0,0xc(%rsp)
    96e0:	00 
    96e1:	81 fe 80 00 00 00    	cmp    $0x80,%esi
    96e7:	73 10                	jae    96f9 <_ZN4core3fmt5Write10write_char17hf3fb4bf249e3b08bE+0x29>
    96e9:	40 88 74 24 0c       	mov    %sil,0xc(%rsp)
    96ee:	41 be 01 00 00 00    	mov    $0x1,%r14d
    96f4:	e9 93 00 00 00       	jmp    978c <_ZN4core3fmt5Write10write_char17hf3fb4bf249e3b08bE+0xbc>
    96f9:	89 f0                	mov    %esi,%eax
    96fb:	81 fe 00 08 00 00    	cmp    $0x800,%esi
    9701:	73 1e                	jae    9721 <_ZN4core3fmt5Write10write_char17hf3fb4bf249e3b08bE+0x51>
    9703:	c1 e8 06             	shr    $0x6,%eax
    9706:	0c c0                	or     $0xc0,%al
    9708:	88 44 24 0c          	mov    %al,0xc(%rsp)
    970c:	40 80 e6 3f          	and    $0x3f,%sil
    9710:	40 80 ce 80          	or     $0x80,%sil
    9714:	40 88 74 24 0d       	mov    %sil,0xd(%rsp)
    9719:	41 be 02 00 00 00    	mov    $0x2,%r14d
    971f:	eb 6b                	jmp    978c <_ZN4core3fmt5Write10write_char17hf3fb4bf249e3b08bE+0xbc>
    9721:	81 fe 00 00 01 00    	cmp    $0x10000,%esi
    9727:	73 2b                	jae    9754 <_ZN4core3fmt5Write10write_char17hf3fb4bf249e3b08bE+0x84>
    9729:	c1 e8 0c             	shr    $0xc,%eax
    972c:	0c e0                	or     $0xe0,%al
    972e:	88 44 24 0c          	mov    %al,0xc(%rsp)
    9732:	89 f0                	mov    %esi,%eax
    9734:	c1 e8 06             	shr    $0x6,%eax
    9737:	24 3f                	and    $0x3f,%al
    9739:	0c 80                	or     $0x80,%al
    973b:	88 44 24 0d          	mov    %al,0xd(%rsp)
    973f:	40 80 e6 3f          	and    $0x3f,%sil
    9743:	40 80 ce 80          	or     $0x80,%sil
    9747:	40 88 74 24 0e       	mov    %sil,0xe(%rsp)
    974c:	41 be 03 00 00 00    	mov    $0x3,%r14d
    9752:	eb 38                	jmp    978c <_ZN4core3fmt5Write10write_char17hf3fb4bf249e3b08bE+0xbc>
    9754:	c1 e8 12             	shr    $0x12,%eax
    9757:	24 07                	and    $0x7,%al
    9759:	0c f0                	or     $0xf0,%al
    975b:	88 44 24 0c          	mov    %al,0xc(%rsp)
    975f:	89 f0                	mov    %esi,%eax
    9761:	c1 e8 0c             	shr    $0xc,%eax
    9764:	24 3f                	and    $0x3f,%al
    9766:	0c 80                	or     $0x80,%al
    9768:	88 44 24 0d          	mov    %al,0xd(%rsp)
    976c:	89 f0                	mov    %esi,%eax
    976e:	c1 e8 06             	shr    $0x6,%eax
    9771:	24 3f                	and    $0x3f,%al
    9773:	0c 80                	or     $0x80,%al
    9775:	88 44 24 0e          	mov    %al,0xe(%rsp)
    9779:	40 80 e6 3f          	and    $0x3f,%sil
    977d:	40 80 ce 80          	or     $0x80,%sil
    9781:	40 88 74 24 0f       	mov    %sil,0xf(%rsp)
    9786:	41 be 04 00 00 00    	mov    $0x4,%r14d
    978c:	4c 8b 3f             	mov    (%rdi),%r15
    978f:	49 8b 47 08          	mov    0x8(%r15),%rax
    9793:	49 8b 5f 10          	mov    0x10(%r15),%rbx
    9797:	48 29 d8             	sub    %rbx,%rax
    979a:	4c 39 f0             	cmp    %r14,%rax
    979d:	72 27                	jb     97c6 <_ZN4core3fmt5Write10write_char17hf3fb4bf249e3b08bE+0xf6>
    979f:	49 8b 3f             	mov    (%r15),%rdi
    97a2:	48 01 df             	add    %rbx,%rdi
    97a5:	48 8d 74 24 0c       	lea    0xc(%rsp),%rsi
    97aa:	4c 89 f2             	mov    %r14,%rdx
    97ad:	ff 15 45 95 04 00    	call   *0x49545(%rip)        # 52cf8 <memcpy@GLIBC_2.14>
    97b3:	4c 01 f3             	add    %r14,%rbx
    97b6:	49 89 5f 10          	mov    %rbx,0x10(%r15)
    97ba:	31 c0                	xor    %eax,%eax
    97bc:	48 83 c4 10          	add    $0x10,%rsp
    97c0:	5b                   	pop    %rbx
    97c1:	41 5e                	pop    %r14
    97c3:	41 5f                	pop    %r15
    97c5:	c3                   	ret
    97c6:	4c 89 ff             	mov    %r15,%rdi
    97c9:	48 89 de             	mov    %rbx,%rsi
    97cc:	4c 89 f2             	mov    %r14,%rdx
    97cf:	e8 0c d3 ff ff       	call   6ae0 <_ZN5alloc7raw_vec19RawVec$LT$T$C$A$GT$7reserve21do_reserve_and_handle17he9f1b2c48e261105E>
    97d4:	49 8b 5f 10          	mov    0x10(%r15),%rbx
    97d8:	eb c5                	jmp    979f <_ZN4core3fmt5Write10write_char17hf3fb4bf249e3b08bE+0xcf>
    97da:	66 0f 1f 44 00 00    	nopw   0x0(%rax,%rax,1)

00000000000097e0 <_ZN4core3fmt5Write9write_fmt17h901a9d0ecc2a0386E>:
    97e0:	48 83 ec 48          	sub    $0x48,%rsp
    97e4:	48 89 7c 24 08       	mov    %rdi,0x8(%rsp)
    97e9:	0f 10 06             	movups (%rsi),%xmm0
    97ec:	0f 10 4e 10          	movups 0x10(%rsi),%xmm1
    97f0:	0f 10 56 20          	movups 0x20(%rsi),%xmm2
    97f4:	0f 29 54 24 30       	movaps %xmm2,0x30(%rsp)
    97f9:	0f 29 4c 24 20       	movaps %xmm1,0x20(%rsp)
    97fe:	0f 29 44 24 10       	movaps %xmm0,0x10(%rsp)
    9803:	48 8d 35 3e 69 04 00 	lea    0x4693e(%rip),%rsi        # 50148 <anon.1e772d87cb7ab8eb3bdc2c5d344d7c2b.0.llvm.13921790192248287823+0x60>
    980a:	48 8d 7c 24 08       	lea    0x8(%rsp),%rdi
    980f:	48 8d 54 24 10       	lea    0x10(%rsp),%rdx
    9814:	ff 15 b6 95 04 00    	call   *0x495b6(%rip)        # 52dd0 <_GLOBAL_OFFSET_TABLE_+0x4d8>
    981a:	48 83 c4 48          	add    $0x48,%rsp
    981e:	c3                   	ret
    981f:	90                   	nop

0000000000009820 <_ZN4core3fmt5Write9write_fmt17hae4c36df8bea63e4E>:
    9820:	48 83 ec 48          	sub    $0x48,%rsp
    9824:	48 89 7c 24 08       	mov    %rdi,0x8(%rsp)
    9829:	0f 10 06             	movups (%rsi),%xmm0
    982c:	0f 10 4e 10          	movups 0x10(%rsi),%xmm1
    9830:	0f 10 56 20          	movups 0x20(%rsi),%xmm2
    9834:	0f 29 54 24 30       	movaps %xmm2,0x30(%rsp)
    9839:	0f 29 4c 24 20       	movaps %xmm1,0x20(%rsp)
    983e:	0f 29 44 24 10       	movaps %xmm0,0x10(%rsp)
    9843:	48 8d 35 2e 69 04 00 	lea    0x4692e(%rip),%rsi        # 50178 <anon.1e772d87cb7ab8eb3bdc2c5d344d7c2b.0.llvm.13921790192248287823+0x90>
    984a:	48 8d 7c 24 08       	lea    0x8(%rsp),%rdi
    984f:	48 8d 54 24 10       	lea    0x10(%rsp),%rdx
    9854:	ff 15 76 95 04 00    	call   *0x49576(%rip)        # 52dd0 <_GLOBAL_OFFSET_TABLE_+0x4d8>
    985a:	48 83 c4 48          	add    $0x48,%rsp
    985e:	c3                   	ret
    985f:	90                   	nop

0000000000009860 <_ZN4core3fmt5Write9write_fmt17hf32f0f1e8848b17cE>:
    9860:	48 83 ec 48          	sub    $0x48,%rsp
    9864:	48 89 7c 24 08       	mov    %rdi,0x8(%rsp)
    9869:	0f 10 06             	movups (%rsi),%xmm0
    986c:	0f 10 4e 10          	movups 0x10(%rsi),%xmm1
    9870:	0f 10 56 20          	movups 0x20(%rsi),%xmm2
    9874:	0f 29 54 24 30       	movaps %xmm2,0x30(%rsp)
    9879:	0f 29 4c 24 20       	movaps %xmm1,0x20(%rsp)
    987e:	0f 29 44 24 10       	movaps %xmm0,0x10(%rsp)
    9883:	48 8d 35 1e 69 04 00 	lea    0x4691e(%rip),%rsi        # 501a8 <anon.1e772d87cb7ab8eb3bdc2c5d344d7c2b.0.llvm.13921790192248287823+0xc0>
    988a:	48 8d 7c 24 08       	lea    0x8(%rsp),%rdi
    988f:	48 8d 54 24 10       	lea    0x10(%rsp),%rdx
    9894:	ff 15 36 95 04 00    	call   *0x49536(%rip)        # 52dd0 <_GLOBAL_OFFSET_TABLE_+0x4d8>
    989a:	48 83 c4 48          	add    $0x48,%rsp
    989e:	c3                   	ret
    989f:	90                   	nop

00000000000098a0 <_ZN4core3ops8function6FnOnce40call_once$u7b$$u7b$vtable.shim$u7d$$u7d$17h078996c9b078df46E>:
    98a0:	53                   	push   %rbx
    98a1:	48 8b 07             	mov    (%rdi),%rax
    98a4:	48 8b 18             	mov    (%rax),%rbx
    98a7:	48 c7 00 00 00 00 00 	movq   $0x0,(%rax)
    98ae:	48 85 db             	test   %rbx,%rbx
    98b1:	74 38                	je     98eb <_ZN4core3ops8function6FnOnce40call_once$u7b$$u7b$vtable.shim$u7d$$u7d$17h078996c9b078df46E+0x4b>
    98b3:	bf 00 04 00 00       	mov    $0x400,%edi
    98b8:	be 01 00 00 00       	mov    $0x1,%esi
    98bd:	ff 15 b5 92 04 00    	call   *0x492b5(%rip)        # 52b78 <_GLOBAL_OFFSET_TABLE_+0x280>
    98c3:	48 85 c0             	test   %rax,%rax
    98c6:	74 3e                	je     9906 <_ZN4core3ops8function6FnOnce40call_once$u7b$$u7b$vtable.shim$u7d$$u7d$17h078996c9b078df46E+0x66>
    98c8:	0f 57 c0             	xorps  %xmm0,%xmm0
    98cb:	0f 11 03             	movups %xmm0,(%rbx)
    98ce:	48 89 43 10          	mov    %rax,0x10(%rbx)
    98d2:	0f 28 05 c7 80 03 00 	movaps 0x380c7(%rip),%xmm0        # 419a0 <_fini+0x2d78>
    98d9:	0f 11 43 18          	movups %xmm0,0x18(%rbx)
    98dd:	c6 43 28 00          	movb   $0x0,0x28(%rbx)
    98e1:	48 c7 43 30 00 00 00 	movq   $0x0,0x30(%rbx)
    98e8:	00 
    98e9:	5b                   	pop    %rbx
    98ea:	c3                   	ret
    98eb:	48 8d 3d 83 92 03 00 	lea    0x39283(%rip),%rdi        # 42b75 <str.4+0xb5>
    98f2:	48 8d 15 9f 72 04 00 	lea    0x4729f(%rip),%rdx        # 50b98 <anon.1e772d87cb7ab8eb3bdc2c5d344d7c2b.0.llvm.13921790192248287823+0xab0>
    98f9:	be 2b 00 00 00       	mov    $0x2b,%esi
    98fe:	ff 15 54 92 04 00    	call   *0x49254(%rip)        # 52b58 <_GLOBAL_OFFSET_TABLE_+0x260>
    9904:	0f 0b                	ud2
    9906:	bf 00 04 00 00       	mov    $0x400,%edi
    990b:	be 01 00 00 00       	mov    $0x1,%esi
    9910:	ff 15 da 94 04 00    	call   *0x494da(%rip)        # 52df0 <_GLOBAL_OFFSET_TABLE_+0x4f8>
    9916:	0f 0b                	ud2
    9918:	0f 1f 84 00 00 00 00 	nopl   0x0(%rax,%rax,1)
    991f:	00 

0000000000009920 <_ZN4core3ops8function6FnOnce40call_once$u7b$$u7b$vtable.shim$u7d$$u7d$17h5443dc362ac126a6E>:
    9920:	50                   	push   %rax
    9921:	48 8b 17             	mov    (%rdi),%rdx
    9924:	48 8b 0a             	mov    (%rdx),%rcx
    9927:	48 8b 42 08          	mov    0x8(%rdx),%rax
    992b:	48 c7 02 00 00 00 00 	movq   $0x0,(%rdx)
    9932:	48 85 c9             	test   %rcx,%rcx
    9935:	74 23                	je     995a <_ZN4core3ops8function6FnOnce40call_once$u7b$$u7b$vtable.shim$u7d$$u7d$17h5443dc362ac126a6E+0x3a>
    9937:	c6 01 01             	movb   $0x1,(%rcx)
    993a:	0f 57 c0             	xorps  %xmm0,%xmm0
    993d:	0f 11 00             	movups %xmm0,(%rax)
    9940:	48 c7 40 10 01 00 00 	movq   $0x1,0x10(%rax)
    9947:	00 
    9948:	0f 11 40 18          	movups %xmm0,0x18(%rax)
    994c:	c6 40 28 00          	movb   $0x0,0x28(%rax)
    9950:	48 c7 40 30 00 00 00 	movq   $0x0,0x30(%rax)
    9957:	00 
    9958:	58                   	pop    %rax
    9959:	c3                   	ret
    995a:	48 8d 3d 14 92 03 00 	lea    0x39214(%rip),%rdi        # 42b75 <str.4+0xb5>
    9961:	48 8d 15 30 72 04 00 	lea    0x47230(%rip),%rdx        # 50b98 <anon.1e772d87cb7ab8eb3bdc2c5d344d7c2b.0.llvm.13921790192248287823+0xab0>
    9968:	be 2b 00 00 00       	mov    $0x2b,%esi
    996d:	ff 15 e5 91 04 00    	call   *0x491e5(%rip)        # 52b58 <_GLOBAL_OFFSET_TABLE_+0x260>
    9973:	0f 0b                	ud2
    9975:	66 2e 0f 1f 84 00 00 	cs nopw 0x0(%rax,%rax,1)
    997c:	00 00 00 
    997f:	90                   	nop

0000000000009980 <_ZN4core3ops8function6FnOnce40call_once$u7b$$u7b$vtable.shim$u7d$$u7d$17h7039b8d15167c49bE>:
    9980:	55                   	push   %rbp
    9981:	53                   	push   %rbx
    9982:	48 83 ec 18          	sub    $0x18,%rsp
    9986:	48 89 f0             	mov    %rsi,%rax
    9989:	48 89 fb             	mov    %rdi,%rbx
    998c:	48 8b 4a 10          	mov    0x10(%rdx),%rcx
    9990:	48 89 4c 24 10       	mov    %rcx,0x10(%rsp)
    9995:	0f 10 02             	movups (%rdx),%xmm0
    9998:	0f 29 04 24          	movaps %xmm0,(%rsp)
    999c:	48 8b 0f             	mov    (%rdi),%rcx
    999f:	48 85 c9             	test   %rcx,%rcx
    99a2:	48 0f 45 cf          	cmovne %rdi,%rcx
    99a6:	8b 57 18             	mov    0x18(%rdi),%edx
    99a9:	48 89 e6             	mov    %rsp,%rsi
    99ac:	48 89 c7             	mov    %rax,%rdi
    99af:	e8 ac 70 01 00       	call   20a60 <_ZN3std10sys_common9backtrace15output_filename17hff54b54c71cbc53eE>
    99b4:	89 c5                	mov    %eax,%ebp
    99b6:	48 8b 3b             	mov    (%rbx),%rdi
    99b9:	48 85 ff             	test   %rdi,%rdi
    99bc:	74 19                	je     99d7 <_ZN4core3ops8function6FnOnce40call_once$u7b$$u7b$vtable.shim$u7d$$u7d$17h7039b8d15167c49bE+0x57>
    99be:	48 8b 73 08          	mov    0x8(%rbx),%rsi
    99c2:	48 85 f6             	test   %rsi,%rsi
    99c5:	74 10                	je     99d7 <_ZN4core3ops8function6FnOnce40call_once$u7b$$u7b$vtable.shim$u7d$$u7d$17h7039b8d15167c49bE+0x57>
    99c7:	48 89 f2             	mov    %rsi,%rdx
    99ca:	48 f7 d2             	not    %rdx
    99cd:	48 c1 ea 3f          	shr    $0x3f,%rdx
    99d1:	ff 15 f1 91 04 00    	call   *0x491f1(%rip)        # 52bc8 <_GLOBAL_OFFSET_TABLE_+0x2d0>
    99d7:	89 e8                	mov    %ebp,%eax
    99d9:	48 83 c4 18          	add    $0x18,%rsp
    99dd:	5b                   	pop    %rbx
    99de:	5d                   	pop    %rbp
    99df:	c3                   	ret
    99e0:	48 89 c5             	mov    %rax,%rbp
    99e3:	48 89 df             	mov    %rbx,%rdi
    99e6:	e8 45 15 00 00       	call   af30 <_ZN4core3ptr88drop_in_place$LT$std..sys_common..backtrace.._print_fmt..$u7b$$u7b$closure$u7d$$u7d$$GT$17hac2ba6f33a4b7146E>
    99eb:	48 89 ef             	mov    %rbp,%rdi
    99ee:	e8 4d c6 ff ff       	call   6040 <_Unwind_Resume@plt>
    99f3:	0f 0b                	ud2
    99f5:	66 2e 0f 1f 84 00 00 	cs nopw 0x0(%rax,%rax,1)
    99fc:	00 00 00 
    99ff:	90                   	nop

0000000000009a00 <_ZN4core3ops8function6FnOnce40call_once$u7b$$u7b$vtable.shim$u7d$$u7d$17ha4998e62367d19a2E>:
    9a00:	e9 0b 6e 01 00       	jmp    20810 <_ZN3std10sys_common9backtrace10_print_fmt28_$u7b$$u7b$closure$u7d$$u7d$28_$u7b$$u7b$closure$u7d$$u7d$17h6a8a2ecd93b70b90E>
    9a05:	66 2e 0f 1f 84 00 00 	cs nopw 0x0(%rax,%rax,1)
    9a0c:	00 00 00 
    9a0f:	90                   	nop

0000000000009a10 <_ZN4core3ops8function6FnOnce40call_once$u7b$$u7b$vtable.shim$u7d$$u7d$17haa82959f155e61eeE>:
    9a10:	50                   	push   %rax
    9a11:	48 8b 07             	mov    (%rdi),%rax
    9a14:	48 89 04 24          	mov    %rax,(%rsp)
    9a18:	48 89 e7             	mov    %rsp,%rdi
    9a1b:	e8 d0 65 01 00       	call   1fff0 <_ZN3std4sync4once4Once9call_once28_$u7b$$u7b$closure$u7d$$u7d$17h7e42ae98a22a621dE>
    9a20:	58                   	pop    %rax
    9a21:	c3                   	ret
    9a22:	66 2e 0f 1f 84 00 00 	cs nopw 0x0(%rax,%rax,1)
    9a29:	00 00 00 
    9a2c:	0f 1f 40 00          	nopl   0x0(%rax)

0000000000009a30 <_ZN4core3ops8function6FnOnce40call_once$u7b$$u7b$vtable.shim$u7d$$u7d$17hb57a13c8d0be3e4dE>:
    9a30:	e9 ab 6c 01 00       	jmp    206e0 <_ZN3std10sys_common9backtrace10_print_fmt28_$u7b$$u7b$closure$u7d$$u7d$17hd04903c2805a1cbeE>
    9a35:	66 2e 0f 1f 84 00 00 	cs nopw 0x0(%rax,%rax,1)
    9a3c:	00 00 00 
    9a3f:	90                   	nop

0000000000009a40 <_ZN4core3ops8function6FnOnce40call_once$u7b$$u7b$vtable.shim$u7d$$u7d$17hb90019f2f758a2feE>:
    9a40:	48 8b 07             	mov    (%rdi),%rax
    9a43:	48 8b 38             	mov    (%rax),%rdi
    9a46:	ff 25 84 90 04 00    	jmp    *0x49084(%rip)        # 52ad0 <_Unwind_GetTextRelBase@GCC_3.0>
    9a4c:	0f 1f 40 00          	nopl   0x0(%rax)

0000000000009a50 <_ZN4core3ops8function6FnOnce40call_once$u7b$$u7b$vtable.shim$u7d$$u7d$17hc4bd65ab90be575aE>:
    9a50:	48 8b 07             	mov    (%rdi),%rax
    9a53:	48 8b 38             	mov    (%rax),%rdi
    9a56:	ff 25 dc 93 04 00    	jmp    *0x493dc(%rip)        # 52e38 <_Unwind_GetDataRelBase@GCC_3.0>
    9a5c:	0f 1f 40 00          	nopl   0x0(%rax)

0000000000009a60 <_ZN4core3ops8function6FnOnce9call_once17h32232018354df19bE>:
    9a60:	50                   	push   %rax
    9a61:	e8 aa 26 01 00       	call   1c110 <_ZN3std2rt19lang_start_internal28_$u7b$$u7b$closure$u7d$$u7d$17hfa4ba04b0455139cE>
    9a66:	0f 0b                	ud2
    9a68:	0f 1f 84 00 00 00 00 	nopl   0x0(%rax,%rax,1)
    9a6f:	00 

0000000000009a70 <_ZN4core3ptr100drop_in_place$LT$$RF$mut$u20$std..io..Write..write_fmt..Adapter$LT$alloc..vec..Vec$LT$u8$GT$$GT$$GT$17hdde4986dbe4e6a79E>:
    9a70:	c3                   	ret
    9a71:	66 2e 0f 1f 84 00 00 	cs nopw 0x0(%rax,%rax,1)
    9a78:	00 00 00 
    9a7b:	0f 1f 44 00 00       	nopl   0x0(%rax,%rax,1)

0000000000009a80 <_ZN4core3ptr101drop_in_place$LT$alloc..sync..Arc$LT$std..sync..mutex..Mutex$LT$alloc..vec..Vec$LT$u8$GT$$GT$$GT$$GT$17h3207a8a9bc7949f5E>:
    9a80:	48 8b 07             	mov    (%rdi),%rax
    9a83:	f0 48 ff 08          	lock decq (%rax)
    9a87:	75 08                	jne    9a91 <_ZN4core3ptr101drop_in_place$LT$alloc..sync..Arc$LT$std..sync..mutex..Mutex$LT$alloc..vec..Vec$LT$u8$GT$$GT$$GT$$GT$17h3207a8a9bc7949f5E+0x11>
    9a89:	48 8b 3f             	mov    (%rdi),%rdi
    9a8c:	e9 3f 33 00 00       	jmp    cdd0 <_ZN5alloc4sync12Arc$LT$T$GT$9drop_slow17h1c8814472a8c8319E>
    9a91:	c3                   	ret
    9a92:	66 2e 0f 1f 84 00 00 	cs nopw 0x0(%rax,%rax,1)
    9a99:	00 00 00 
    9a9c:	0f 1f 40 00          	nopl   0x0(%rax)

0000000000009aa0 <_ZN4core3ptr105drop_in_place$LT$core..result..Result$LT$alloc..ffi..c_str..CString$C$alloc..ffi..c_str..NulError$GT$$GT$17he62c35be2495b77bE>:
    9aa0:	48 8b 47 08          	mov    0x8(%rdi),%rax
    9aa4:	48 85 c0             	test   %rax,%rax
    9aa7:	74 1c                	je     9ac5 <_ZN4core3ptr105drop_in_place$LT$core..result..Result$LT$alloc..ffi..c_str..CString$C$alloc..ffi..c_str..NulError$GT$$GT$17he62c35be2495b77bE+0x25>
    9aa9:	48 8b 77 10          	mov    0x10(%rdi),%rsi
    9aad:	48 85 f6             	test   %rsi,%rsi
    9ab0:	74 32                	je     9ae4 <_ZN4core3ptr105drop_in_place$LT$core..result..Result$LT$alloc..ffi..c_str..CString$C$alloc..ffi..c_str..NulError$GT$$GT$17he62c35be2495b77bE+0x44>
    9ab2:	48 89 f2             	mov    %rsi,%rdx
    9ab5:	48 f7 d2             	not    %rdx
    9ab8:	48 c1 ea 3f          	shr    $0x3f,%rdx
    9abc:	48 89 c7             	mov    %rax,%rdi
    9abf:	ff 25 03 91 04 00    	jmp    *0x49103(%rip)        # 52bc8 <_GLOBAL_OFFSET_TABLE_+0x2d0>
    9ac5:	48 8b 47 10          	mov    0x10(%rdi),%rax
    9ac9:	c6 00 00             	movb   $0x0,(%rax)
    9acc:	48 8b 77 18          	mov    0x18(%rdi),%rsi
    9ad0:	48 85 f6             	test   %rsi,%rsi
    9ad3:	74 0f                	je     9ae4 <_ZN4core3ptr105drop_in_place$LT$core..result..Result$LT$alloc..ffi..c_str..CString$C$alloc..ffi..c_str..NulError$GT$$GT$17he62c35be2495b77bE+0x44>
    9ad5:	48 8b 7f 10          	mov    0x10(%rdi),%rdi
    9ad9:	ba 01 00 00 00       	mov    $0x1,%edx
    9ade:	ff 25 e4 90 04 00    	jmp    *0x490e4(%rip)        # 52bc8 <_GLOBAL_OFFSET_TABLE_+0x2d0>
    9ae4:	c3                   	ret
    9ae5:	66 2e 0f 1f 84 00 00 	cs nopw 0x0(%rax,%rax,1)
    9aec:	00 00 00 
    9aef:	90                   	nop

0000000000009af0 <_ZN4core3ptr107drop_in_place$LT$alloc..sync..Arc$LT$core..mem..maybe_uninit..MaybeUninit$LT$std..thread..Inner$GT$$GT$$GT$17hff24564fc625bec8E>:
    9af0:	48 8b 07             	mov    (%rdi),%rax
    9af3:	f0 48 ff 08          	lock decq (%rax)
    9af7:	75 08                	jne    9b01 <_ZN4core3ptr107drop_in_place$LT$alloc..sync..Arc$LT$core..mem..maybe_uninit..MaybeUninit$LT$std..thread..Inner$GT$$GT$$GT$17hff24564fc625bec8E+0x11>
    9af9:	48 8b 3f             	mov    (%rdi),%rdi
    9afc:	e9 af 32 00 00       	jmp    cdb0 <_ZN5alloc4sync12Arc$LT$T$GT$9drop_slow17h1aeda8dd1b39820fE>
    9b01:	c3                   	ret
    9b02:	66 2e 0f 1f 84 00 00 	cs nopw 0x0(%rax,%rax,1)
    9b09:	00 00 00 
    9b0c:	0f 1f 40 00          	nopl   0x0(%rax)

0000000000009b10 <_ZN4core3ptr109drop_in_place$LT$core..slice..sort..CopyOnDrop$LT$std..backtrace_rs..symbolize..gimli..elf..ParsedSym$GT$$GT$17h523dc95212e31eaeE>:
    9b10:	48 8b 47 10          	mov    0x10(%rdi),%rax
    9b14:	48 89 46 10          	mov    %rax,0x10(%rsi)
    9b18:	0f 10 07             	movups (%rdi),%xmm0
    9b1b:	0f 11 06             	movups %xmm0,(%rsi)
    9b1e:	c3                   	ret
    9b1f:	90                   	nop

0000000000009b20 <_ZN4core3ptr115drop_in_place$LT$core..cell..RefMut$LT$core..option..Option$LT$std..sys_common..thread_info..ThreadInfo$GT$$GT$$GT$17hc7d68d93357fabd8E>:
    9b20:	48 ff 07             	incq   (%rdi)
    9b23:	c3                   	ret
    9b24:	66 2e 0f 1f 84 00 00 	cs nopw 0x0(%rax,%rax,1)
    9b2b:	00 00 00 
    9b2e:	66 90                	xchg   %ax,%ax

0000000000009b30 <_ZN4core3ptr118drop_in_place$LT$alloc..vec..Vec$LT$$LP$gimli..common..DebugInfoOffset$C$gimli..common..DebugArangesOffset$RP$$GT$$GT$17hb3dcb74e6c7982f7E>:
    9b30:	48 85 f6             	test   %rsi,%rsi
    9b33:	74 0f                	je     9b44 <_ZN4core3ptr118drop_in_place$LT$alloc..vec..Vec$LT$$LP$gimli..common..DebugInfoOffset$C$gimli..common..DebugArangesOffset$RP$$GT$$GT$17hb3dcb74e6c7982f7E+0x14>
    9b35:	48 c1 e6 04          	shl    $0x4,%rsi
    9b39:	ba 08 00 00 00       	mov    $0x8,%edx
    9b3e:	ff 25 84 90 04 00    	jmp    *0x49084(%rip)        # 52bc8 <_GLOBAL_OFFSET_TABLE_+0x2d0>
    9b44:	c3                   	ret
    9b45:	66 2e 0f 1f 84 00 00 	cs nopw 0x0(%rax,%rax,1)
    9b4c:	00 00 00 
    9b4f:	90                   	nop

0000000000009b50 <_ZN4core3ptr119drop_in_place$LT$addr2line..lazy..LazyCell$LT$core..result..Result$LT$addr2line..Lines$C$gimli..read..Error$GT$$GT$$GT$17h5779088008a82997E>:
    9b50:	48 83 3f 00          	cmpq   $0x0,(%rdi)
    9b54:	74 09                	je     9b5f <_ZN4core3ptr119drop_in_place$LT$addr2line..lazy..LazyCell$LT$core..result..Result$LT$addr2line..Lines$C$gimli..read..Error$GT$$GT$$GT$17h5779088008a82997E+0xf>
    9b56:	48 83 c7 08          	add    $0x8,%rdi
    9b5a:	e9 31 12 00 00       	jmp    ad90 <_ZN4core3ptr86drop_in_place$LT$core..result..Result$LT$addr2line..Lines$C$gimli..read..Error$GT$$GT$17hdcf9df495007f136E>
    9b5f:	c3                   	ret

0000000000009b60 <_ZN4core3ptr123drop_in_place$LT$addr2line..ResUnit$LT$gimli..read..endian_slice..EndianSlice$LT$gimli..endianity..LittleEndian$GT$$GT$$GT$17h9f4829f9c28e549fE>:
    9b60:	41 56                	push   %r14
    9b62:	53                   	push   %rbx
    9b63:	50                   	push   %rax
    9b64:	48 89 fb             	mov    %rdi,%rbx
    9b67:	48 83 c7 58          	add    $0x58,%rdi
    9b6b:	e8 b0 0a 00 00       	call   a620 <_ZN4core3ptr55drop_in_place$LT$gimli..read..abbrev..Abbreviations$GT$17h660a2cde8c386f45E>
